ARM GAS  C:\Users\Vento\AppData\Local\Temp\ccMWL8p6.s 			page 1


   1              		.cpu cortex-m3
   2              		.eabi_attribute 20, 1
   3              		.eabi_attribute 21, 1
   4              		.eabi_attribute 23, 3
   5              		.eabi_attribute 24, 1
   6              		.eabi_attribute 25, 1
   7              		.eabi_attribute 26, 1
   8              		.eabi_attribute 30, 1
   9              		.eabi_attribute 34, 1
  10              		.eabi_attribute 18, 4
  11              		.file	"main.c"
  12              		.text
  13              	.Ltext0:
  14              		.cfi_sections	.debug_frame
  15              		.section	.text.MX_GPIO_Init,"ax",%progbits
  16              		.align	1
  17              		.arch armv7-m
  18              		.syntax unified
  19              		.thumb
  20              		.thumb_func
  21              		.fpu softvfp
  23              	MX_GPIO_Init:
  24              	.LFB96:
  25              		.file 1 "Src/main.c"
   1:Src/main.c    **** /* USER CODE BEGIN Header */
   2:Src/main.c    **** /**
   3:Src/main.c    ****   ******************************************************************************
   4:Src/main.c    ****   * @file           : main.c
   5:Src/main.c    ****   * @brief          : Main program body
   6:Src/main.c    ****   ******************************************************************************
   7:Src/main.c    ****   * @attention
   8:Src/main.c    ****   *
   9:Src/main.c    ****   * <h2><center>&copy; Copyright (c) 2022 STMicroelectronics.
  10:Src/main.c    ****   * All rights reserved.</center></h2>
  11:Src/main.c    ****   *
  12:Src/main.c    ****   * This software component is licensed by ST under Ultimate Liberty license
  13:Src/main.c    ****   * SLA0044, the "License"; You may not use this file except in compliance with
  14:Src/main.c    ****   * the License. You may obtain a copy of the License at:
  15:Src/main.c    ****   *                             www.st.com/SLA0044
  16:Src/main.c    ****   *
  17:Src/main.c    ****   ******************************************************************************
  18:Src/main.c    ****   */
  19:Src/main.c    **** /* USER CODE END Header */
  20:Src/main.c    **** /* Includes ------------------------------------------------------------------*/
  21:Src/main.c    **** #include "main.h"
  22:Src/main.c    **** 
  23:Src/main.c    **** /* Private includes ----------------------------------------------------------*/
  24:Src/main.c    **** /* USER CODE BEGIN Includes */
  25:Src/main.c    **** #include "stm32f1xx_hal.h"
  26:Src/main.c    **** #include "stdio.h"
  27:Src/main.c    **** #include "string.h"
  28:Src/main.c    **** #include "Waveshare_SIM7600.h"
  29:Src/main.c    **** #include "uart.h"
  30:Src/main.c    **** #include "flash.h"
  31:Src/main.c    **** #include "delay.h"
  32:Src/main.c    **** #include "sdmm.h"
  33:Src/main.c    **** #include "math.h"
ARM GAS  C:\Users\Vento\AppData\Local\Temp\ccMWL8p6.s 			page 2


  34:Src/main.c    **** #include "i2c-lcd.h"
  35:Src/main.c    **** //#include "sd.h"
  36:Src/main.c    **** /* USER CODE END Includes */
  37:Src/main.c    **** 
  38:Src/main.c    **** /* Private typedef -----------------------------------------------------------*/
  39:Src/main.c    **** /* USER CODE BEGIN PTD */
  40:Src/main.c    **** 
  41:Src/main.c    **** typedef enum 
  42:Src/main.c    **** {
  43:Src/main.c    ****   ESP_WIFI_CONNECTED,
  44:Src/main.c    ****   ESP_WIFI_DISCONNECTED,
  45:Src/main.c    ****   ESP_TCP_OK,
  46:Src/main.c    ****   ESP_TCP_FAIL,
  47:Src/main.c    ****   ESP_START,
  48:Src/main.c    ****   ESP_FAIL,
  49:Src/main.c    ****   ESP_AP
  50:Src/main.c    **** } ESP_state_t;
  51:Src/main.c    **** 
  52:Src/main.c    **** /* USER CODE END PTD */
  53:Src/main.c    **** 
  54:Src/main.c    **** /* Private define ------------------------------------------------------------*/
  55:Src/main.c    **** /* USER CODE BEGIN PD */
  56:Src/main.c    **** #define BQ_ADDR			0xD0
  57:Src/main.c    **** #define PROGRAM_START_DP 		 	 (uint32_t)0x0801E000
  58:Src/main.c    **** /* USER CODE END PD */
  59:Src/main.c    **** 
  60:Src/main.c    **** /* Private macro -------------------------------------------------------------*/
  61:Src/main.c    **** /* USER CODE BEGIN PM */
  62:Src/main.c    **** 
  63:Src/main.c    **** /* USER CODE END PM */
  64:Src/main.c    **** 
  65:Src/main.c    **** /* Private variables ---------------------------------------------------------*/
  66:Src/main.c    **** ADC_HandleTypeDef hadc1;
  67:Src/main.c    **** 
  68:Src/main.c    **** I2C_HandleTypeDef hi2c1;
  69:Src/main.c    **** 
  70:Src/main.c    **** IWDG_HandleTypeDef hiwdg;
  71:Src/main.c    **** 
  72:Src/main.c    **** SPI_HandleTypeDef hspi1;
  73:Src/main.c    **** SPI_HandleTypeDef hspi2;
  74:Src/main.c    **** 
  75:Src/main.c    **** TIM_HandleTypeDef htim2;
  76:Src/main.c    **** TIM_HandleTypeDef htim3;
  77:Src/main.c    **** TIM_HandleTypeDef htim4;
  78:Src/main.c    **** TIM_HandleTypeDef htim5;
  79:Src/main.c    **** TIM_HandleTypeDef htim6;
  80:Src/main.c    **** 
  81:Src/main.c    **** UART_HandleTypeDef huart4;
  82:Src/main.c    **** UART_HandleTypeDef huart5;
  83:Src/main.c    **** UART_HandleTypeDef huart1;
  84:Src/main.c    **** UART_HandleTypeDef huart2;
  85:Src/main.c    **** UART_HandleTypeDef huart3;
  86:Src/main.c    **** 
  87:Src/main.c    **** ESP_state_t ESP_Status = ESP_WIFI_DISCONNECTED;
  88:Src/main.c    **** 
  89:Src/main.c    **** /* USER CODE BEGIN PV */
  90:Src/main.c    **** 
ARM GAS  C:\Users\Vento\AppData\Local\Temp\ccMWL8p6.s 			page 3


  91:Src/main.c    **** /* USER CODE END PV */
  92:Src/main.c    **** 
  93:Src/main.c    **** /* Private function prototypes -----------------------------------------------*/
  94:Src/main.c    **** void SystemClock_Config(void);
  95:Src/main.c    **** static void MX_GPIO_Init(void);
  96:Src/main.c    **** static void MX_I2C1_Init(void);
  97:Src/main.c    **** static void MX_TIM5_Init(void);
  98:Src/main.c    **** static void MX_USART1_UART_Init(void);
  99:Src/main.c    **** static void MX_USART2_UART_Init(void);
 100:Src/main.c    **** static void MX_USART3_UART_Init(void);
 101:Src/main.c    **** static void MX_SPI2_Init(void);
 102:Src/main.c    **** static void MX_SPI1_Init(void);
 103:Src/main.c    **** static void MX_TIM2_Init(void);
 104:Src/main.c    **** static void MX_TIM3_Init(void);
 105:Src/main.c    **** static void MX_IWDG_Init(void);
 106:Src/main.c    **** static void MX_ADC1_Init(void);
 107:Src/main.c    **** static void MX_UART4_Init(void);
 108:Src/main.c    **** static void MX_TIM4_Init(void);
 109:Src/main.c    **** static void MX_UART5_Init(void);
 110:Src/main.c    **** static void MX_TIM6_Init(void);
 111:Src/main.c    **** /* USER CODE BEGIN PFP */
 112:Src/main.c    **** #ifdef __GNUC__
 113:Src/main.c    **** /* With GCC/RAISONANCE, small printf (option LD Linker->Libraries->Small printf set to 'Yes') calls
 114:Src/main.c    **** #define PUTCHAR_PROTOTYPE int __io_putchar(int ch)
 115:Src/main.c    **** #else
 116:Src/main.c    ****  #define PUTCHAR_PROTOTYPE int fputc(int ch, FILE *f)
 117:Src/main.c    **** #endif /* __GNUC__ */
 118:Src/main.c    **** uint8_t BCD2DEC(uint8_t data)
 119:Src/main.c    **** {
 120:Src/main.c    **** 	return (data>>4)*10 + (data&0x0F);
 121:Src/main.c    **** }
 122:Src/main.c    **** uint8_t DEC2BCD(uint8_t data)
 123:Src/main.c    **** {
 124:Src/main.c    **** 	return (data/10)<<4 | (data%10);
 125:Src/main.c    **** }
 126:Src/main.c    **** 
 127:Src/main.c    **** /* USER CODE END PFP */
 128:Src/main.c    **** 
 129:Src/main.c    **** /* Private user code ---------------------------------------------------------*/
 130:Src/main.c    **** /* USER CODE BEGIN 0 */
 131:Src/main.c    **** uint8_t rx3_data, rx2_data, rx2_done = 0;
 132:Src/main.c    **** uint8_t DataRs485, Rs485Index = 0, Data_MB[99], Index_MB;
 133:Src/main.c    **** uint16_t rx2_index = 0, Index_SIM = 0;
 134:Src/main.c    **** char Sim_Data[668];
 135:Src/main.c    **** 
 136:Src/main.c    **** uint32_t time_led, time_of4g, time_net, time_dt, TIME_4G = 5000;
 137:Src/main.c    **** 
 138:Src/main.c    **** uint32_t SPS30_DT[4];
 139:Src/main.c    **** float PM1_0, PM4_0, PM2_5, PM10;
 140:Src/main.c    **** 
 141:Src/main.c    **** uint8_t on_4g = 0, net_ok = 0, Mode_SPS30[8];
 142:Src/main.c    **** 
 143:Src/main.c    **** char ssid[30] = "";
 144:Src/main.c    **** char pass[30] = "";
 145:Src/main.c    **** 
 146:Src/main.c    **** char IP[] = "imet.com.vn";
 147:Src/main.c    **** char port[] = "1111";
ARM GAS  C:\Users\Vento\AppData\Local\Temp\ccMWL8p6.s 			page 4


 148:Src/main.c    **** 
 149:Src/main.c    **** char rx5_index = 0;
 150:Src/main.c    **** char rx5_data = 0;
 151:Src/main.c    **** char rx5_buffer[50] = {0};
 152:Src/main.c    **** volatile bool isLastCommandOK = false;
 153:Src/main.c    **** uint32_t timeESP = 0;
 154:Src/main.c    **** uint32_t timeLCD = 0;
 155:Src/main.c    **** uint8_t pageLCD = 1;
 156:Src/main.c    **** uint32_t timeLED_ESP = 0;
 157:Src/main.c    **** uint16_t timeLED = 0;
 158:Src/main.c    **** uint32_t timeSIM = 0;
 159:Src/main.c    **** 
 160:Src/main.c    **** volatile uint16_t Timer1;
 161:Src/main.c    **** 
 162:Src/main.c    **** sdcard_handle_t sdcard;
 163:Src/main.c    **** FATFS	FatFs;
 164:Src/main.c    **** FIL	Fil;
 165:Src/main.c    **** //extern FATFS SDFatFs; //File system object structure (FATFS)
 166:Src/main.c    **** //struct sd_data SD;
 167:Src/main.c    **** void HAL_GPIO_EXTI_Callback(uint16_t GPIO_Pin)
 168:Src/main.c    **** {
 169:Src/main.c    **** 	if(GPIO_Pin == NET_Pin)
 170:Src/main.c    ****   {
 171:Src/main.c    **** 		//printf("time: %d", HAL_GetTick() - time_net);
 172:Src/main.c    **** 		time_net = HAL_GetTick();
 173:Src/main.c    **** 	}
 174:Src/main.c    **** }
 175:Src/main.c    **** void HAL_TIM_PeriodElapsedCallback(TIM_HandleTypeDef *htim)
 176:Src/main.c    **** {
 177:Src/main.c    **** 	if(htim->Instance == TIM3)
 178:Src/main.c    **** 	{
 179:Src/main.c    **** 		Index_MB = Rs485Index;
 180:Src/main.c    **** //		 printf("\n\r");
 181:Src/main.c    **** //		 for(uint8_t i=0; i<Rs485Index; i++) {
 182:Src/main.c    **** //			  printf("%d  ", Data_MB[i]);//UART_putCharPC(DatabufferRs485[i]);
 183:Src/main.c    **** //		 }
 184:Src/main.c    **** 		 //printf("ind: %d\n\r", Index_MB);
 185:Src/main.c    **** 		HAL_GPIO_TogglePin(LED2_GPIO_Port, LED2_Pin);
 186:Src/main.c    **** 		 //for(uint8_t i=0; i<Index_MB; i++)  Data_MB[i] = DatabufferRs485[i];
 187:Src/main.c    **** 		 //memset(DatabufferRs485, '\0', 255);
 188:Src/main.c    **** 		 //if(Rs485Index > 98) HAL_UART_Receive_IT(&huart4, &DataRs485, 1);
 189:Src/main.c    **** 		Rs485Index = 0; 
 190:Src/main.c    **** 		HAL_TIM_Base_Stop_IT(&htim3);
 191:Src/main.c    ****   }
 192:Src/main.c    ****   if(htim->Instance == TIM2)
 193:Src/main.c    ****   {
 194:Src/main.c    **** 		Index_SIM = rx2_index;
 195:Src/main.c    ****     // if(read_ms) printf("%s", Sim_Data);
 196:Src/main.c    ****     rx2_index = 0;
 197:Src/main.c    ****     rx2_done = 0;
 198:Src/main.c    ****     // read_ms = 1;
 199:Src/main.c    ****     HAL_TIM_Base_Stop_IT(&htim2);
 200:Src/main.c    ****   }
 201:Src/main.c    ****   if (htim->Instance == TIM6)
 202:Src/main.c    ****   {
 203:Src/main.c    **** 
 204:Src/main.c    ****   }
ARM GAS  C:\Users\Vento\AppData\Local\Temp\ccMWL8p6.s 			page 5


 205:Src/main.c    **** }
 206:Src/main.c    **** void HAL_UART_RxCpltCallback(UART_HandleTypeDef *huart)
 207:Src/main.c    **** {
 208:Src/main.c    **** 	if(huart->Instance == USART3)
 209:Src/main.c    ****   {
 210:Src/main.c    **** 		if(rx3_data == '^') NVIC_SystemReset();
 211:Src/main.c    **** 		//HAL_UART_Receive_IT(&huart3, &rx3_data, 1);
 212:Src/main.c    **** 	}
 213:Src/main.c    **** 	if(huart->Instance == UART4)
 214:Src/main.c    ****   {
 215:Src/main.c    **** 		Data_MB[Rs485Index] = DataRs485;
 216:Src/main.c    **** 		DataRs485 = 0;
 217:Src/main.c    ****     Rs485Index++;	
 218:Src/main.c    **** 		if(Rs485Index == 2) HAL_TIM_Base_Start_IT(&htim3);
 219:Src/main.c    **** 		__HAL_TIM_SET_COUNTER(&htim3, 0);
 220:Src/main.c    **** 		HAL_UART_Receive_IT(&huart4, &DataRs485, 1);
 221:Src/main.c    **** 	}
 222:Src/main.c    **** 	if(huart->Instance == USART2)
 223:Src/main.c    ****   {
 224:Src/main.c    **** 		Sim_Data[rx2_index] = rx2_data;
 225:Src/main.c    **** 		rx2_data = 0;
 226:Src/main.c    **** 		rx2_index++;
 227:Src/main.c    **** 		if(rx2_index == 1) HAL_TIM_Base_Start_IT(&htim2);
 228:Src/main.c    **** 		__HAL_TIM_SET_COUNTER(&htim2, 0);
 229:Src/main.c    **** 		if(rx2_index < 668) HAL_UART_Receive_IT(&huart2, &rx2_data, 1);
 230:Src/main.c    **** 	}
 231:Src/main.c    ****   if(huart->Instance == UART5)
 232:Src/main.c    ****   {
 233:Src/main.c    ****     rx5_buffer[rx5_index] = rx5_data;
 234:Src/main.c    ****     rx5_index++;
 235:Src/main.c    ****     if (rx5_data == '\n')
 236:Src/main.c    ****     {
 237:Src/main.c    ****       if (strstr(rx5_buffer, "OK") != NULL)
 238:Src/main.c    ****       {
 239:Src/main.c    ****         isLastCommandOK = true;
 240:Src/main.c    ****         memset(rx5_buffer, '\0', sizeof(rx5_buffer));
 241:Src/main.c    ****         rx5_index = 0;
 242:Src/main.c    ****       }
 243:Src/main.c    ****       else 
 244:Src/main.c    ****       {
 245:Src/main.c    ****         isLastCommandOK = false;
 246:Src/main.c    ****         memset(rx5_buffer, '\0', sizeof(rx5_buffer));
 247:Src/main.c    ****         rx5_index = 0;
 248:Src/main.c    ****       }
 249:Src/main.c    ****     }
 250:Src/main.c    ****     if (ESP_Status == ESP_AP)
 251:Src/main.c    ****     {
 252:Src/main.c    ****       ESP_Status = ESP_START;
 253:Src/main.c    ****     }
 254:Src/main.c    ****     rx5_data = 0;
 255:Src/main.c    **** 		HAL_UART_Receive_IT(&huart5, &rx5_data, 1);
 256:Src/main.c    ****   }
 257:Src/main.c    **** }
 258:Src/main.c    **** 
 259:Src/main.c    **** ESP_state_t ESP_Command(uint8_t mode, char* data)
 260:Src/main.c    **** {
 261:Src/main.c    ****   char command[20] ={0};
ARM GAS  C:\Users\Vento\AppData\Local\Temp\ccMWL8p6.s 			page 6


 262:Src/main.c    ****   uint32_t timeOut = 0;
 263:Src/main.c    ****   memset(command, '\0', sizeof(command));
 264:Src/main.c    **** 
 265:Src/main.c    ****   command[0] = 0xAA;
 266:Src/main.c    ****   command[1] = '0' + mode;
 267:Src/main.c    ****   switch (mode)
 268:Src/main.c    ****   {
 269:Src/main.c    ****     case 0:
 270:Src/main.c    ****     {
 271:Src/main.c    ****       uint8_t i = 0;
 272:Src/main.c    ****       while (*(data + i) != '\0')
 273:Src/main.c    ****       {
 274:Src/main.c    ****         command[i + 2] = *(data + i);
 275:Src/main.c    ****         i++;
 276:Src/main.c    ****       }
 277:Src/main.c    ****       i++;
 278:Src/main.c    ****       command[i + 1] = 0xBB;
 279:Src/main.c    ****       HAL_UART_Transmit(&huart5, (uint8_t*) command, (uint16_t) (i+2), 100);
 280:Src/main.c    ****       timeOut = HAL_GetTick();
 281:Src/main.c    ****       isLastCommandOK = false;
 282:Src/main.c    ****       while (!isLastCommandOK && ((HAL_GetTick() - timeOut) <= 15000));
 283:Src/main.c    ****       if (isLastCommandOK)
 284:Src/main.c    ****       {
 285:Src/main.c    ****         ESP_Status = ESP_WIFI_CONNECTED;
 286:Src/main.c    ****         return ESP_WIFI_CONNECTED;
 287:Src/main.c    ****       }
 288:Src/main.c    ****       else
 289:Src/main.c    ****       {
 290:Src/main.c    ****         ESP_Status = ESP_WIFI_DISCONNECTED;
 291:Src/main.c    ****         return ESP_WIFI_DISCONNECTED;
 292:Src/main.c    ****       }
 293:Src/main.c    ****     }
 294:Src/main.c    ****     case 1:
 295:Src/main.c    ****     {
 296:Src/main.c    ****       uint8_t i = 0;
 297:Src/main.c    ****       while (*(data + i) != '\0')
 298:Src/main.c    ****       {
 299:Src/main.c    ****         command[i + 2] = *(data + i);
 300:Src/main.c    ****         i++;
 301:Src/main.c    ****       }
 302:Src/main.c    ****       i++;
 303:Src/main.c    ****       command[i + 1] = 0xBB;
 304:Src/main.c    ****       HAL_UART_Transmit(&huart5, (uint8_t*) command, (uint16_t) (i+2), 100);
 305:Src/main.c    ****       timeOut = HAL_GetTick();
 306:Src/main.c    ****       isLastCommandOK = false;
 307:Src/main.c    ****       while (!isLastCommandOK && ((HAL_GetTick() - timeOut) <= 7500));
 308:Src/main.c    ****       if (isLastCommandOK)
 309:Src/main.c    ****       {
 310:Src/main.c    ****         return ESP_TCP_OK;
 311:Src/main.c    ****       }
 312:Src/main.c    ****       else
 313:Src/main.c    ****       {
 314:Src/main.c    ****         return ESP_TCP_FAIL;
 315:Src/main.c    ****       }
 316:Src/main.c    ****     }
 317:Src/main.c    ****     case 2:
 318:Src/main.c    ****     {
ARM GAS  C:\Users\Vento\AppData\Local\Temp\ccMWL8p6.s 			page 7


 319:Src/main.c    ****       uint8_t i = 0;
 320:Src/main.c    ****       while (i < 16)
 321:Src/main.c    ****       {
 322:Src/main.c    ****         command[i + 2] = *(data + i);
 323:Src/main.c    ****         i++;
 324:Src/main.c    ****       }
 325:Src/main.c    ****       i++;
 326:Src/main.c    ****       command[i + 1] = 0xBB;
 327:Src/main.c    ****       HAL_UART_Transmit(&huart5, (uint8_t*) command, (uint16_t) (19), 100);
 328:Src/main.c    ****       timeOut = HAL_GetTick();
 329:Src/main.c    ****       isLastCommandOK = false;
 330:Src/main.c    ****       while (!isLastCommandOK && ((HAL_GetTick() - timeOut) <= 7500));
 331:Src/main.c    ****       if (isLastCommandOK)
 332:Src/main.c    ****       {
 333:Src/main.c    ****         return ESP_TCP_OK;
 334:Src/main.c    ****       }
 335:Src/main.c    ****       else
 336:Src/main.c    ****       {
 337:Src/main.c    ****         return ESP_TCP_FAIL;
 338:Src/main.c    ****       }
 339:Src/main.c    ****     }
 340:Src/main.c    ****     case 3:
 341:Src/main.c    ****     {
 342:Src/main.c    ****       command[2] = 0xBB;
 343:Src/main.c    ****       HAL_UART_Transmit(&huart5, (uint8_t*) command, (uint16_t) (3), 100);
 344:Src/main.c    ****       timeOut = HAL_GetTick();
 345:Src/main.c    ****       isLastCommandOK = false;
 346:Src/main.c    ****       while (!isLastCommandOK && ((HAL_GetTick() - timeOut) <= 5000));
 347:Src/main.c    ****       if (isLastCommandOK)
 348:Src/main.c    ****       {
 349:Src/main.c    ****         return ESP_WIFI_DISCONNECTED;
 350:Src/main.c    ****       }
 351:Src/main.c    ****       break;
 352:Src/main.c    ****     }
 353:Src/main.c    ****     case 4:
 354:Src/main.c    ****     {
 355:Src/main.c    ****       command[2] = 0xBB;
 356:Src/main.c    ****       HAL_UART_Transmit(&huart5, (uint8_t*) command, (uint16_t) (3), 100);
 357:Src/main.c    ****       timeOut = HAL_GetTick();
 358:Src/main.c    ****       isLastCommandOK = false;
 359:Src/main.c    ****       while (!isLastCommandOK && ((HAL_GetTick() - timeOut) <= 5000));
 360:Src/main.c    ****       if (isLastCommandOK)
 361:Src/main.c    ****       {
 362:Src/main.c    ****         return ESP_START;
 363:Src/main.c    ****       }
 364:Src/main.c    ****       break;
 365:Src/main.c    ****     }
 366:Src/main.c    ****     case 5:
 367:Src/main.c    ****     {
 368:Src/main.c    ****       command[2] = 0xBB;
 369:Src/main.c    ****       HAL_UART_Transmit(&huart5, (uint8_t*) command, (uint16_t) (3), 100);
 370:Src/main.c    ****       timeOut = HAL_GetTick();
 371:Src/main.c    ****       isLastCommandOK = false;
 372:Src/main.c    ****       while (!isLastCommandOK && ((HAL_GetTick() - timeOut) <= 5000));
 373:Src/main.c    **** 
 374:Src/main.c    ****       return ESP_AP;
 375:Src/main.c    ****     }
ARM GAS  C:\Users\Vento\AppData\Local\Temp\ccMWL8p6.s 			page 8


 376:Src/main.c    ****     case 6:
 377:Src/main.c    ****     {
 378:Src/main.c    ****       command[2] = 0xBB;
 379:Src/main.c    ****       HAL_UART_Transmit(&huart5, (uint8_t*) command, (uint16_t) (3), 100);
 380:Src/main.c    ****       timeOut = HAL_GetTick();
 381:Src/main.c    ****       isLastCommandOK = false;
 382:Src/main.c    ****       while (!isLastCommandOK && ((HAL_GetTick() - timeOut) <= 10000));
 383:Src/main.c    ****       if (isLastCommandOK)
 384:Src/main.c    ****       {
 385:Src/main.c    ****         return ESP_WIFI_CONNECTED;
 386:Src/main.c    ****       }
 387:Src/main.c    ****       else
 388:Src/main.c    ****       {
 389:Src/main.c    ****         return ESP_WIFI_DISCONNECTED;
 390:Src/main.c    ****       }
 391:Src/main.c    ****     }
 392:Src/main.c    ****     case 7:
 393:Src/main.c    ****     {
 394:Src/main.c    ****       command[2] = 0xBB;
 395:Src/main.c    ****       HAL_UART_Transmit(&huart5, (uint8_t*) command, (uint16_t) (3), 100);
 396:Src/main.c    ****       timeOut = HAL_GetTick();
 397:Src/main.c    ****       isLastCommandOK = false;
 398:Src/main.c    ****       while (!isLastCommandOK && ((HAL_GetTick() - timeOut) <= 10000));
 399:Src/main.c    ****       if (isLastCommandOK)
 400:Src/main.c    ****       {
 401:Src/main.c    ****         return ESP_TCP_OK;
 402:Src/main.c    ****       }
 403:Src/main.c    ****       else
 404:Src/main.c    ****       {
 405:Src/main.c    ****         return ESP_TCP_FAIL;
 406:Src/main.c    ****       }
 407:Src/main.c    ****     }
 408:Src/main.c    ****     default:
 409:Src/main.c    ****     {
 410:Src/main.c    ****       return ESP_FAIL;
 411:Src/main.c    ****     }
 412:Src/main.c    ****   }
 413:Src/main.c    **** }
 414:Src/main.c    **** 
 415:Src/main.c    **** uint16_t CheckSumCrc16( uint8_t *ucBufferTemp, uint8_t ucLength )
 416:Src/main.c    **** {
 417:Src/main.c    ****     uint32_t CRCFull = 0xFFFF;
 418:Src/main.c    ****     char CRCLSB;
 419:Src/main.c    ****     for ( uint8_t i = 0; i < ucLength; i++ )
 420:Src/main.c    ****     {
 421:Src/main.c    ****         CRCFull = (uint16_t) (CRCFull ^ ucBufferTemp[i]);
 422:Src/main.c    ****         for ( int j = 0; j < 8; j++ )
 423:Src/main.c    ****         {
 424:Src/main.c    ****             CRCLSB = (char) (CRCFull & 0x0001);
 425:Src/main.c    ****             CRCFull = (uint16_t) ((CRCFull >> 1) & 0x7FFFF);
 426:Src/main.c    ****             
 427:Src/main.c    ****             if ( CRCLSB == 1 )
 428:Src/main.c    ****             {
 429:Src/main.c    ****                 CRCFull = (uint16_t) (CRCFull ^ 0xA001);
 430:Src/main.c    ****             }
 431:Src/main.c    ****         }
 432:Src/main.c    ****     }
ARM GAS  C:\Users\Vento\AppData\Local\Temp\ccMWL8p6.s 			page 9


 433:Src/main.c    ****     return CRCFull;
 434:Src/main.c    **** }
 435:Src/main.c    **** 
 436:Src/main.c    **** void reverse(char* str, int len)
 437:Src/main.c    **** {
 438:Src/main.c    ****     int i = 0, j = len - 1, temp;
 439:Src/main.c    ****     while (i < j)
 440:Src/main.c    ****     {
 441:Src/main.c    ****         temp = str[i];
 442:Src/main.c    ****         str[i] = str[j];
 443:Src/main.c    ****         str[j] = temp;
 444:Src/main.c    ****         i++;
 445:Src/main.c    ****         j--;
 446:Src/main.c    ****     }
 447:Src/main.c    **** }
 448:Src/main.c    **** 
 449:Src/main.c    **** int intToStr(int x, char str[], int d)
 450:Src/main.c    **** {
 451:Src/main.c    ****     int i = 0;
 452:Src/main.c    ****     if (x == 0)
 453:Src/main.c    ****     {
 454:Src/main.c    ****         str[i++] = '0';
 455:Src/main.c    ****     }
 456:Src/main.c    ****     else
 457:Src/main.c    ****     {
 458:Src/main.c    ****         while (x)
 459:Src/main.c    ****         {
 460:Src/main.c    ****             str[i++] = (x % 10) + '0';
 461:Src/main.c    ****             x = x / 10;
 462:Src/main.c    ****         }
 463:Src/main.c    ****     }
 464:Src/main.c    ****     
 465:Src/main.c    ****     // If number of digits required is more, then
 466:Src/main.c    ****     // add 0s at the beginning
 467:Src/main.c    ****     while (i < d)
 468:Src/main.c    ****         str[i++] = '0';
 469:Src/main.c    **** 
 470:Src/main.c    ****     reverse(str, i);
 471:Src/main.c    ****     str[i] = '\0';
 472:Src/main.c    ****     return i;
 473:Src/main.c    **** }
 474:Src/main.c    **** 
 475:Src/main.c    **** void ftoa(float n, char* res, int afterpoint)
 476:Src/main.c    **** {
 477:Src/main.c    ****     // Extract integer part
 478:Src/main.c    ****     int ipart = (int)n;
 479:Src/main.c    ****     // Extract floating part
 480:Src/main.c    ****     float fpart = n - (float)ipart;
 481:Src/main.c    ****     // convert integer part to string
 482:Src/main.c    ****     int i = intToStr(ipart, res, 0);
 483:Src/main.c    ****     // check for display option after point
 484:Src/main.c    ****     if (afterpoint != 0)
 485:Src/main.c    ****     {
 486:Src/main.c    ****         res[i] = '.'; // add dot
 487:Src/main.c    ****         fpart = fpart * pow(10, afterpoint);
 488:Src/main.c    ****         intToStr((int)fpart, res + i + 1, afterpoint);
 489:Src/main.c    ****     }
ARM GAS  C:\Users\Vento\AppData\Local\Temp\ccMWL8p6.s 			page 10


 490:Src/main.c    **** }
 491:Src/main.c    **** 
 492:Src/main.c    **** 
 493:Src/main.c    **** static void sdcard_check()
 494:Src/main.c    **** {
 495:Src/main.c    **** 	TCHAR label[10];
 496:Src/main.c    **** 	DWORD	vsn;
 497:Src/main.c    **** 	FATFS *fs;
 498:Src/main.c    **** 	DWORD fre_clust, fre_sect, tot_sect;
 499:Src/main.c    **** 	FRESULT	fr;
 500:Src/main.c    **** 	double percent;
 501:Src/main.c    **** 	sdcard.mount =false;
 502:Src/main.c    **** 	fr = f_mount(&sdcard.FatFs, "", 1);
 503:Src/main.c    **** 	if(fr == FR_OK){
 504:Src/main.c    **** 		f_getlabel("", label, &vsn);
 505:Src/main.c    **** 		f_getfree("", &fre_clust, &fs);
 506:Src/main.c    **** 	    tot_sect = (fs->n_fatent - 2) * fs->csize;
 507:Src/main.c    **** 	    fre_sect = fre_clust * fs->csize;
 508:Src/main.c    **** 	    percent = (double)(fre_sect*100/tot_sect);
 509:Src/main.c    **** 		sdcard.mount = true;
 510:Src/main.c    **** 		sdcard.serial = vsn;
 511:Src/main.c    **** 		strcpy(sdcard.label,label);
 512:Src/main.c    **** 		printf("LOG: Mount SDCard OK. Label=%s. Serial Number=%lu\r\n",label,vsn);
 513:Src/main.c    **** 		printf("%10lu KiB total drive space.\r\n%10lu KiB available.\r\n", tot_sect / 2, fre_sect / 2);
 514:Src/main.c    **** 		printf("LOG:SDcard free %d %% \r\n",(int)percent);
 515:Src/main.c    **** 	}
 516:Src/main.c    **** 	else {
 517:Src/main.c    **** 		printf("LOG: Mount SDCard Fail.\r\n");
 518:Src/main.c    **** 	}
 519:Src/main.c    **** }		
 520:Src/main.c    **** /* USER CODE END 0 */
 521:Src/main.c    **** 
 522:Src/main.c    **** /**
 523:Src/main.c    ****   * @brief  The application entry point.
 524:Src/main.c    ****   * @retval int
 525:Src/main.c    ****   */
 526:Src/main.c    **** int main(void)
 527:Src/main.c    **** {
 528:Src/main.c    ****   /* USER CODE BEGIN 1 */
 529:Src/main.c    **** 	// SCB->VTOR = (uint32_t)0x08003000;
 530:Src/main.c    ****   __enable_irq();
 531:Src/main.c    **** 	//MX_IWDG_Init(); 
 532:Src/main.c    **** //	IWDG->KR = 0xAAAA; // Writing 0xAAAA in the Key register prevents watchdog reset
 533:Src/main.c    **** //	IWDG->KR = 0xCCCC; // Start the independent watchdog timer
 534:Src/main.c    **** 	//HAL_Delay(500);
 535:Src/main.c    **** 	// hiwdg.Init.Reload = 100;
 536:Src/main.c    **** 	// HAL_IWDG_Init(&hiwdg);
 537:Src/main.c    ****   /* USER CODE END 1 */
 538:Src/main.c    **** 
 539:Src/main.c    ****   /* MCU Configuration--------------------------------------------------------*/
 540:Src/main.c    **** 
 541:Src/main.c    ****   /* Reset of all peripherals, Initializes the Flash interface and the Systick. */
 542:Src/main.c    ****   HAL_Init();
 543:Src/main.c    **** 
 544:Src/main.c    ****   /* USER CODE BEGIN Init */
 545:Src/main.c    **** 
 546:Src/main.c    ****   /* USER CODE END Init */
ARM GAS  C:\Users\Vento\AppData\Local\Temp\ccMWL8p6.s 			page 11


 547:Src/main.c    **** 
 548:Src/main.c    ****   /* Configure the system clock */
 549:Src/main.c    ****   SystemClock_Config();
 550:Src/main.c    **** 
 551:Src/main.c    ****   /* USER CODE BEGIN SysInit */
 552:Src/main.c    **** 
 553:Src/main.c    ****   /* USER CODE END SysInit */
 554:Src/main.c    **** 
 555:Src/main.c    ****   /* Initialize all configured peripherals */
 556:Src/main.c    ****   MX_GPIO_Init();
 557:Src/main.c    ****   MX_I2C1_Init();
 558:Src/main.c    ****   MX_TIM5_Init();
 559:Src/main.c    ****   MX_USART1_UART_Init();
 560:Src/main.c    ****   MX_USART2_UART_Init();
 561:Src/main.c    ****   MX_USART3_UART_Init();
 562:Src/main.c    ****   MX_SPI2_Init();
 563:Src/main.c    ****   MX_SPI1_Init();
 564:Src/main.c    ****   MX_TIM2_Init();
 565:Src/main.c    ****   MX_TIM3_Init();
 566:Src/main.c    ****   MX_IWDG_Init();
 567:Src/main.c    ****   MX_ADC1_Init();
 568:Src/main.c    ****   MX_UART4_Init();
 569:Src/main.c    ****   MX_TIM4_Init();
 570:Src/main.c    ****   MX_UART5_Init();
 571:Src/main.c    ****   MX_TIM6_Init();
 572:Src/main.c    ****   /* USER CODE BEGIN 2 */
 573:Src/main.c    ****   
 574:Src/main.c    ****   //=============================================== LCD CONFIG ==================================
 575:Src/main.c    ****   lcd_init();
 576:Src/main.c    ****   lcd_clear_display();
 577:Src/main.c    ****   HAL_Delay(50);
 578:Src/main.c    ****   lcd_goto_XY(2, 6);
 579:Src/main.c    ****   HAL_Delay(50);
 580:Src/main.c    ****   lcd_send_string("WELCOME");
 581:Src/main.c    ****   HAL_Delay(50);
 582:Src/main.c    ****   lcd_goto_XY(3, 3);
 583:Src/main.c    ****   HAL_Delay(50);
 584:Src/main.c    ****   lcd_send_string("IMET PMX DUST");
 585:Src/main.c    ****   //================================================ LCD DONE =====================================
 586:Src/main.c    **** 
 587:Src/main.c    ****   //============================================ TIMER & UARTs SETUP ==============================
 588:Src/main.c    **** 	HAL_TIM_PWM_Start(&htim5, TIM_CHANNEL_2);
 589:Src/main.c    **** 	__HAL_TIM_SetCompare(&htim5, TIM_CHANNEL_2, 50);
 590:Src/main.c    **** 	HAL_TIM_Base_Stop_IT(&htim2);
 591:Src/main.c    **** 	HAL_TIM_Base_Stop_IT(&htim3);
 592:Src/main.c    **** 	HAL_UART_Receive_IT(&huart3, &rx3_data, 1);
 593:Src/main.c    **** 	HAL_UART_Receive_IT(&huart2, &rx2_data, 1);
 594:Src/main.c    **** 	HAL_UART_Receive_IT(&huart4, &DataRs485, 1);
 595:Src/main.c    ****   HAL_UART_Receive_IT(&huart5, &rx5_data, 1);
 596:Src/main.c    ****   //============================================ TIMER & UARTs DONE ===============================
 597:Src/main.c    **** 
 598:Src/main.c    ****   //============================================= SETUP CONTROL GPIO ==============================
 599:Src/main.c    **** 	HAL_GPIO_WritePin(WP_FLH_GPIO_Port, WP_FLH_Pin, GPIO_PIN_RESET);
 600:Src/main.c    **** 	HAL_GPIO_WritePin(RST_FLH_GPIO_Port, RST_FLH_Pin, GPIO_PIN_SET);
 601:Src/main.c    **** 	HAL_GPIO_WritePin(LED2_GPIO_Port, LED2_Pin, GPIO_PIN_RESET);
 602:Src/main.c    **** 	HAL_GPIO_WritePin(CTR_SIM1_GPIO_Port, CTR_SIM1_Pin, GPIO_PIN_SET);
 603:Src/main.c    **** 	HAL_GPIO_WritePin(CTR_SIM2_GPIO_Port, CTR_SIM2_Pin, GPIO_PIN_RESET);
ARM GAS  C:\Users\Vento\AppData\Local\Temp\ccMWL8p6.s 			page 12


 604:Src/main.c    **** 	// printf("Anh Trung\n\r");
 605:Src/main.c    **** 	// printf("Power on SDCard\r\n");
 606:Src/main.c    ****   //=============================================== SETUP GPIO DONE ===============================
 607:Src/main.c    **** 	
 608:Src/main.c    ****   //============================================ CHECK RTC AND ENABLE IWDG ========================
 609:Src/main.c    ****   if(HAL_I2C_IsDeviceReady(&hi2c1, BQ_ADDR, 1, 100) == 0)
 610:Src/main.c    ****   {
 611:Src/main.c    ****     printf("DS1307 is OK\n\r");
 612:Src/main.c    ****   }
 613:Src/main.c    **** 
 614:Src/main.c    **** 	MX_IWDG_Init();
 615:Src/main.c    **** 	hiwdg.Init.Reload = 4000;
 616:Src/main.c    **** 	HAL_IWDG_Init(&hiwdg);
 617:Src/main.c    **** 	IWDG->KR = 0xAAAA; // Writing 0xAAAA in the Key register prevents watchdog reset
 618:Src/main.c    **** 	IWDG->KR = 0xCCCC; // Start the independent watchdog timer
 619:Src/main.c    ****   //========================================= CHECK RTC AND ENABLE IWDG DONE ======================
 620:Src/main.c    **** 
 621:Src/main.c    **** 
 622:Src/main.c    **** 	uint32_t time1s = HAL_GetTick(); 
 623:Src/main.c    **** 	sendATcommand("AT"); 
 624:Src/main.c    **** 	if(HAL_GetTick() - time1s < 910)
 625:Src/main.c    ****   {
 626:Src/main.c    **** 		sendATcommand("AT+NETOPEN");   
 627:Src/main.c    **** 		sendATcommand("AT+CATR=1");		
 628:Src/main.c    **** 		TIME_4G = 10000;
 629:Src/main.c    **** 		on_4g = 0;
 630:Src/main.c    ****     net_ok = 1;
 631:Src/main.c    **** 	}
 632:Src/main.c    **** 
 633:Src/main.c    **** 
 634:Src/main.c    ****   //============================================= DUST CONFIG =====================================
 635:Src/main.c    **** 	Mode_SPS30[0] = 0x7E; Mode_SPS30[1] = 0x00; Mode_SPS30[2] = 0x01; Mode_SPS30[3] = 0x00; Mode_SPS30
 636:Src/main.c    **** 	Mode_SPS30[5] = 0x7E;
 637:Src/main.c    **** 	memset(Data_MB, '\0', 99);
 638:Src/main.c    **** 	HAL_UART_Transmit(&huart4, Mode_SPS30, 6, 100);
 639:Src/main.c    **** 	HAL_Delay(2000);
 640:Src/main.c    **** 	Mode_SPS30[0] = 0x7E; Mode_SPS30[1] = 0x00; Mode_SPS30[2] = 0x00; Mode_SPS30[3] = 0x02; Mode_SPS30
 641:Src/main.c    **** 	Mode_SPS30[5] = 0x03; Mode_SPS30[6] = 0xF9; Mode_SPS30[7] = 0x7E;
 642:Src/main.c    **** 	memset(Data_MB, '\0', 99);
 643:Src/main.c    **** 	HAL_UART_Transmit(&huart4, Mode_SPS30, 8, 100);
 644:Src/main.c    **** 	HAL_UART_Receive_IT(&huart4, &DataRs485, 1);
 645:Src/main.c    ****   //================================================ DUST DONE ====================================
 646:Src/main.c    **** 	
 647:Src/main.c    **** 
 648:Src/main.c    ****   //================================================ ESP START ====================================
 649:Src/main.c    ****   ESP_Status = ESP_Command(3, NULL);
 650:Src/main.c    ****   ESP_Status = ESP_Command(4, NULL);
 651:Src/main.c    ****   HAL_Delay(2000);
 652:Src/main.c    ****   timeESP = HAL_GetTick();
 653:Src/main.c    ****   timeLED = 5000;
 654:Src/main.c    ****   isLastCommandOK = false;
 655:Src/main.c    ****   while (!isLastCommandOK && ((HAL_GetTick() - timeESP) <= 15000))
 656:Src/main.c    ****   {
 657:Src/main.c    ****     IWDG->KR = 0xAAAA;
 658:Src/main.c    ****     HAL_Delay(500);
 659:Src/main.c    ****     HAL_GPIO_TogglePin(LED1_GPIO_Port, LED1_Pin);	
 660:Src/main.c    ****   }
ARM GAS  C:\Users\Vento\AppData\Local\Temp\ccMWL8p6.s 			page 13


 661:Src/main.c    **** 
 662:Src/main.c    ****   if (isLastCommandOK)
 663:Src/main.c    ****   {
 664:Src/main.c    ****     ESP_Status = ESP_WIFI_CONNECTED;
 665:Src/main.c    ****     timeLED = 2000;
 666:Src/main.c    ****     char temp[20] = {0};
 667:Src/main.c    ****     sprintf(temp, "%s,%s", IP, port);
 668:Src/main.c    ****     ESP_Status = ESP_Command(1, temp);
 669:Src/main.c    ****     // ESP_Status = ESP_Command(7, NULL);
 670:Src/main.c    ****     HAL_Delay(1000);
 671:Src/main.c    ****   }
 672:Src/main.c    ****   else
 673:Src/main.c    ****   {
 674:Src/main.c    ****     if (ESP_Command(6, NULL) == ESP_WIFI_CONNECTED)
 675:Src/main.c    ****     {
 676:Src/main.c    ****       ESP_Status = ESP_WIFI_CONNECTED;
 677:Src/main.c    ****       timeLED = 2000;
 678:Src/main.c    ****       // ESP_Status = ESP_Command(7, NULL);
 679:Src/main.c    ****       char temp[20] = {0};
 680:Src/main.c    ****       sprintf(temp, "%s,%s", IP, port);
 681:Src/main.c    ****       ESP_Status = ESP_Command(1, temp);
 682:Src/main.c    ****       HAL_Delay(1000);
 683:Src/main.c    ****     }
 684:Src/main.c    ****     else
 685:Src/main.c    ****     {
 686:Src/main.c    ****       ESP_Status = ESP_WIFI_DISCONNECTED;
 687:Src/main.c    ****     }
 688:Src/main.c    ****   }
 689:Src/main.c    ****   //================================================ ESP DONE =====================================
 690:Src/main.c    **** 
 691:Src/main.c    ****   timeESP = time_of4g = time_led = time_dt = time_net = timeSIM = HAL_GetTick();
 692:Src/main.c    ****   // memset(temp0, '\0', sizeof(temp0));
 693:Src/main.c    ****   // strcpy(temp0, IP);
 694:Src/main.c    ****   // strcat(temp0, ",");
 695:Src/main.c    ****   // strcat(temp0, port);
 696:Src/main.c    ****   // ESP_Command(1, temp0);
 697:Src/main.c    ****   // HAL_Delay(1000);
 698:Src/main.c    ****   uint8_t failcount = 0;
 699:Src/main.c    ****   lcd_clear_display();
 700:Src/main.c    ****   HAL_Delay(10);
 701:Src/main.c    ****   lcd_goto_XY(1, 0);
 702:Src/main.c    ****   lcd_send_string("PM1.0:        ug/m3");
 703:Src/main.c    ****   lcd_goto_XY(2, 0);
 704:Src/main.c    ****   lcd_send_string("PM2.5:        ug/m3");
 705:Src/main.c    ****   lcd_goto_XY(3, 0);
 706:Src/main.c    ****   lcd_send_string("PM4.0:        ug/m3");
 707:Src/main.c    ****   lcd_goto_XY(4, 0);
 708:Src/main.c    ****   lcd_send_string("PM10:         ug/m3");
 709:Src/main.c    **** 
 710:Src/main.c    ****   /* USER CODE END 2 */
 711:Src/main.c    **** 
 712:Src/main.c    ****   /* Infinite loop */
 713:Src/main.c    ****   /* USER CODE BEGIN WHILE */
 714:Src/main.c    ****   while (1)
 715:Src/main.c    ****   {	
 716:Src/main.c    **** 		IWDG->KR = 0xAAAA;
 717:Src/main.c    **** 		if((HAL_GetTick() - time_of4g) > TIME_4G)
ARM GAS  C:\Users\Vento\AppData\Local\Temp\ccMWL8p6.s 			page 14


 718:Src/main.c    ****     {
 719:Src/main.c    **** 			IWDG->KR = 0xAAAA;
 720:Src/main.c    **** 			switch (on_4g)
 721:Src/main.c    **** 			{
 722:Src/main.c    **** 				case 4:
 723:Src/main.c    ****         {
 724:Src/main.c    **** 					Network_check();
 725:Src/main.c    ****           PDPSetting();		
 726:Src/main.c    ****           TCPClient(port, IP);
 727:Src/main.c    **** 				  //sendATcommand("AT+CMGF=1");
 728:Src/main.c    **** 					sendATcommand("AT+CIPRXGET=1");
 729:Src/main.c    ****           // sendATcommand("AT+CATR=1");
 730:Src/main.c    **** 					sendATcommand("AT+CIPSRIP=0");
 731:Src/main.c    ****           
 732:Src/main.c    **** 					printf("SIM7600 is OK\n\r"); 
 733:Src/main.c    **** 					TIME_4G = 10000;
 734:Src/main.c    ****           on_4g = 0;
 735:Src/main.c    **** 					net_ok = 1;
 736:Src/main.c    ****           time_net = HAL_GetTick();
 737:Src/main.c    **** 					break;
 738:Src/main.c    ****         }
 739:Src/main.c    **** 				case 3:
 740:Src/main.c    ****         {
 741:Src/main.c    **** 					HAL_GPIO_WritePin(SIM_PWON_GPIO_Port, SIM_PWON_Pin, GPIO_PIN_RESET);
 742:Src/main.c    **** 					TIME_4G = 30000;
 743:Src/main.c    ****           on_4g = 4;
 744:Src/main.c    **** 					break;
 745:Src/main.c    ****         }
 746:Src/main.c    **** 				case 2:
 747:Src/main.c    ****         {
 748:Src/main.c    **** 					HAL_GPIO_WritePin(SIM_PWON_GPIO_Port, SIM_PWON_Pin, GPIO_PIN_SET);
 749:Src/main.c    **** 					TIME_4G = 400;
 750:Src/main.c    ****           on_4g = 3;
 751:Src/main.c    **** 					break;
 752:Src/main.c    ****         }
 753:Src/main.c    **** 				case 1:
 754:Src/main.c    ****         {
 755:Src/main.c    **** 					SIM_PowerOn(); 
 756:Src/main.c    **** 					TIME_4G = 900;
 757:Src/main.c    ****           on_4g = 2;
 758:Src/main.c    **** 					break;
 759:Src/main.c    ****         }
 760:Src/main.c    **** 				case 0:
 761:Src/main.c    ****         {
 762:Src/main.c    **** 					if((HAL_GetTick() - time_net) > 3000)
 763:Src/main.c    ****           {
 764:Src/main.c    **** 						SIM_PowerOff();
 765:Src/main.c    **** 						HAL_GPIO_TogglePin(CTR_SIM1_GPIO_Port, CTR_SIM1_Pin);
 766:Src/main.c    **** 						HAL_GPIO_TogglePin(CTR_SIM2_GPIO_Port, CTR_SIM2_Pin);
 767:Src/main.c    **** 						on_4g = 1;
 768:Src/main.c    ****             net_ok = 0;
 769:Src/main.c    ****             TIME_4G = 2000;
 770:Src/main.c    **** 					}
 771:Src/main.c    **** 					else
 772:Src/main.c    ****           {
 773:Src/main.c    ****             net_ok = 1;
 774:Src/main.c    ****             TIME_4G = 10000;
ARM GAS  C:\Users\Vento\AppData\Local\Temp\ccMWL8p6.s 			page 15


 775:Src/main.c    ****           }
 776:Src/main.c    **** 					break;
 777:Src/main.c    ****         }
 778:Src/main.c    **** 			}
 779:Src/main.c    **** 			time_of4g = HAL_GetTick();
 780:Src/main.c    **** 		}
 781:Src/main.c    **** 		
 782:Src/main.c    **** 		if((HAL_GetTick() - time_dt) >= 3000)
 783:Src/main.c    ****     {
 784:Src/main.c    **** 			if((Index_MB == 47)&&(Data_MB[0] == 126)&&(Data_MB[Index_MB-1] == 126)&&(Data_MB[1] == Data_MB[3
 785:Src/main.c    ****       {
 786:Src/main.c    **** 				for(uint8_t i=0; i<4; i++)
 787:Src/main.c    **** 					SPS30_DT[i] = (uint32_t)(Data_MB[4*i+5] << 24) | (uint32_t)(Data_MB[4*i+6] << 16) | (uint32_t)
 788:Src/main.c    **** 				PM1_0 = *(float*)&SPS30_DT[0];
 789:Src/main.c    ****         PM2_5 = *(float*)&SPS30_DT[1];
 790:Src/main.c    **** 				PM4_0 = *(float*)&SPS30_DT[2];
 791:Src/main.c    ****         PM10  = *(float*)&SPS30_DT[3];
 792:Src/main.c    ****         // memcpy(&PM1_0, SPS30_DT, 4);
 793:Src/main.c    ****         // memcpy(&PM2_5, SPS30_DT+1, 4);
 794:Src/main.c    ****         // memcpy(&PM4_0, SPS30_DT+2, 4);
 795:Src/main.c    ****         // memcpy(&PM10, SPS30_DT+3, 4);
 796:Src/main.c    **** 				printf("PM1.0: %.2f ug/m3\n\rPM2.5: %.2f ug/m3\n\rPM4.0: %.2f ug/m3\n\rPM10: %.2f ug/m3\n\r", P
 797:Src/main.c    **** 			}
 798:Src/main.c    **** 			Mode_SPS30[0] = 0x7E; Mode_SPS30[1] = 0x00; Mode_SPS30[2] = 0x03; Mode_SPS30[3] = 0x00; Mode_SPS
 799:Src/main.c    **** 			Mode_SPS30[5] = 0x7E;
 800:Src/main.c    **** 			memset(Data_MB, '\0', 99);
 801:Src/main.c    **** 			HAL_UART_Transmit(&huart4, Mode_SPS30, 6, 100);
 802:Src/main.c    **** 			HAL_UART_Receive_IT(&huart4, &DataRs485, 1);
 803:Src/main.c    **** 			time_dt = HAL_GetTick();
 804:Src/main.c    **** 		}
 805:Src/main.c    ****     if((HAL_GetTick() - timeESP) >= 10000)
 806:Src/main.c    ****     {
 807:Src/main.c    ****       if ((ESP_Status != ESP_AP) && (ESP_Status != ESP_START) && (ESP_Status != ESP_FAIL))
 808:Src/main.c    ****       {
 809:Src/main.c    ****         if (ESP_Command(6, NULL) == ESP_WIFI_DISCONNECTED)
 810:Src/main.c    ****         {
 811:Src/main.c    ****           timeLED = 5000;
 812:Src/main.c    ****           ESP_Status = ESP_WIFI_DISCONNECTED;
 813:Src/main.c    ****           failcount = 0;
 814:Src/main.c    ****         }
 815:Src/main.c    ****       }
 816:Src/main.c    **** 
 817:Src/main.c    ****       if((ESP_Status == ESP_TCP_OK) && (PM2_5 > 0.0) && (PM10 > 0.0) && (PM4_0 > 0.0) && (PM1_0 > 0
 818:Src/main.c    ****       {
 819:Src/main.c    ****         timeLED = 500;
 820:Src/main.c    ****         uint8_t TCP_data[20] = {0};
 821:Src/main.c    ****         uint32_t CRCFull = 0xFFFF;
 822:Src/main.c    ****         uint32_t temp_c = 0;
 823:Src/main.c    ****         TCP_data[0] = 0x01;
 824:Src/main.c    ****         TCP_data[1] = 0x0B;
 825:Src/main.c    ****         temp_c = (uint32_t)(PM1_0 * 10);
 826:Src/main.c    ****         TCP_data[2] = temp_c / 256;
 827:Src/main.c    ****         TCP_data[3] = temp_c % 256;
 828:Src/main.c    ****         TCP_data[4] = ';';
 829:Src/main.c    ****         temp_c = (uint32_t)(PM2_5 * 10);
 830:Src/main.c    ****         TCP_data[5] = temp_c / 256;
 831:Src/main.c    ****         TCP_data[6] = temp_c % 256;
ARM GAS  C:\Users\Vento\AppData\Local\Temp\ccMWL8p6.s 			page 16


 832:Src/main.c    ****         TCP_data[7] = ';';
 833:Src/main.c    ****         temp_c = (uint32_t)(PM4_0 * 10);
 834:Src/main.c    ****         TCP_data[8] = temp_c / 256;
 835:Src/main.c    ****         TCP_data[9] = temp_c % 256;
 836:Src/main.c    ****         TCP_data[10] = ';';
 837:Src/main.c    ****         temp_c = (uint32_t)(PM10 * 10);
 838:Src/main.c    ****         TCP_data[11] = temp_c / 256;
 839:Src/main.c    ****         TCP_data[12] = temp_c % 256;
 840:Src/main.c    **** 
 841:Src/main.c    ****         CRCFull = CheckSumCrc16(TCP_data+2, 11);
 842:Src/main.c    **** 
 843:Src/main.c    ****         TCP_data[13] = (uint8_t) (CRCFull & 0xFF);
 844:Src/main.c    ****         TCP_data[14] = (uint8_t) ((CRCFull >> 8) & 0xFF);
 845:Src/main.c    **** 
 846:Src/main.c    ****         TCP_data[15] = (uint8_t) (0xFF - TCP_data[0]);
 847:Src/main.c    ****         
 848:Src/main.c    ****         ESP_Status = ESP_Command(2, TCP_data);
 849:Src/main.c    ****         if (ESP_Status == ESP_TCP_OK)
 850:Src/main.c    ****         {
 851:Src/main.c    ****           failcount = 0;
 852:Src/main.c    ****         }
 853:Src/main.c    ****         else
 854:Src/main.c    ****         {
 855:Src/main.c    ****           failcount++;
 856:Src/main.c    ****         }
 857:Src/main.c    ****       }
 858:Src/main.c    ****       else if ((ESP_Status == ESP_WIFI_DISCONNECTED) || (failcount > 5))
 859:Src/main.c    ****       {
 860:Src/main.c    ****         timeLED = 10000;
 861:Src/main.c    ****         ESP_Command(5, NULL);
 862:Src/main.c    ****         HAL_Delay(500);
 863:Src/main.c    ****         ESP_Status = ESP_AP;
 864:Src/main.c    ****       }
 865:Src/main.c    ****       else if ((ESP_Status == ESP_WIFI_CONNECTED) || (ESP_Status == ESP_TCP_FAIL))
 866:Src/main.c    ****       {
 867:Src/main.c    ****         timeLED = 2000;
 868:Src/main.c    ****         ESP_Status = ESP_Command(7, NULL);
 869:Src/main.c    ****         if (ESP_Status != ESP_TCP_OK)
 870:Src/main.c    ****         {
 871:Src/main.c    ****           failcount++;
 872:Src/main.c    ****         }
 873:Src/main.c    ****         else
 874:Src/main.c    ****         {
 875:Src/main.c    ****           failcount = 0;
 876:Src/main.c    ****         }
 877:Src/main.c    ****         HAL_Delay(1000);
 878:Src/main.c    ****       }
 879:Src/main.c    ****       else if (ESP_Status == ESP_START)
 880:Src/main.c    ****       {
 881:Src/main.c    ****         timeLED = 10000;
 882:Src/main.c    ****         timeESP = HAL_GetTick();
 883:Src/main.c    ****         failcount = 0;
 884:Src/main.c    ****         while (!isLastCommandOK && ((HAL_GetTick() - timeESP) <= 15000));
 885:Src/main.c    ****         if (isLastCommandOK)
 886:Src/main.c    ****         {
 887:Src/main.c    ****           ESP_Status = ESP_WIFI_CONNECTED;
 888:Src/main.c    ****           ESP_Status = ESP_Command(7, NULL);
ARM GAS  C:\Users\Vento\AppData\Local\Temp\ccMWL8p6.s 			page 17


 889:Src/main.c    ****         }
 890:Src/main.c    ****         else
 891:Src/main.c    ****         {
 892:Src/main.c    ****           if (ESP_Command(6, NULL) == ESP_WIFI_CONNECTED)
 893:Src/main.c    ****           {
 894:Src/main.c    ****             ESP_Status = ESP_WIFI_CONNECTED;
 895:Src/main.c    ****             ESP_Status = ESP_Command(7, NULL);
 896:Src/main.c    ****             HAL_Delay(1000);
 897:Src/main.c    ****           }
 898:Src/main.c    ****           else 
 899:Src/main.c    ****           {
 900:Src/main.c    ****             ESP_Status = ESP_WIFI_DISCONNECTED;
 901:Src/main.c    ****           }
 902:Src/main.c    ****         }
 903:Src/main.c    ****       }
 904:Src/main.c    ****       else if (ESP_Status == ESP_FAIL)
 905:Src/main.c    ****       {
 906:Src/main.c    ****         timeLED = 20000;
 907:Src/main.c    ****         ESP_Command(4, NULL);
 908:Src/main.c    ****       }
 909:Src/main.c    ****       timeESP = HAL_GetTick();
 910:Src/main.c    ****     }
 911:Src/main.c    ****     if ((HAL_GetTick() - timeLCD) >= 1000)
 912:Src/main.c    ****     {
 913:Src/main.c    ****       char printData[17];
 914:Src/main.c    ****       char data[6] = {0};
 915:Src/main.c    **** 
 916:Src/main.c    ****       lcd_goto_XY(1, 7);
 917:Src/main.c    ****       lcd_send_string("      ");
 918:Src/main.c    ****       memset(data, '\0', sizeof(data));
 919:Src/main.c    ****       ftoa(PM1_0, data, 2);
 920:Src/main.c    ****       data[5] = '\0';
 921:Src/main.c    ****       sprintf(printData, "%6s", data);
 922:Src/main.c    ****       lcd_goto_XY(1, 7);
 923:Src/main.c    ****       lcd_send_string(printData);
 924:Src/main.c    **** 
 925:Src/main.c    ****       lcd_goto_XY(2, 7);
 926:Src/main.c    ****       lcd_send_string("      ");
 927:Src/main.c    ****       memset(data, '\0', sizeof(data));
 928:Src/main.c    ****       ftoa(PM2_5, data, 2);
 929:Src/main.c    ****       data[5] = '\0';
 930:Src/main.c    ****       sprintf(printData, "%6s", data);
 931:Src/main.c    ****       lcd_goto_XY(2, 7);
 932:Src/main.c    ****       lcd_send_string(printData);
 933:Src/main.c    **** 
 934:Src/main.c    ****       lcd_goto_XY(3, 7);
 935:Src/main.c    ****       lcd_send_string("      ");
 936:Src/main.c    ****       memset(printData, '\0', sizeof(printData));
 937:Src/main.c    ****       memset(data, '\0', sizeof(data));
 938:Src/main.c    ****       ftoa(PM4_0, data, 2);
 939:Src/main.c    ****       data[5] = '\0';
 940:Src/main.c    ****       sprintf(printData, "%6s", data);
 941:Src/main.c    ****       lcd_goto_XY(3, 7);
 942:Src/main.c    ****       lcd_send_string(printData);
 943:Src/main.c    **** 
 944:Src/main.c    ****       lcd_goto_XY(4, 7);
 945:Src/main.c    ****       lcd_send_string("      ");
ARM GAS  C:\Users\Vento\AppData\Local\Temp\ccMWL8p6.s 			page 18


 946:Src/main.c    ****       memset(printData, '\0', sizeof(printData));
 947:Src/main.c    ****       memset(data, '\0', sizeof(data));
 948:Src/main.c    ****       ftoa(PM10, data, 2);
 949:Src/main.c    ****       data[5] = '\0';
 950:Src/main.c    ****       sprintf(printData, "%6s", data);
 951:Src/main.c    ****       lcd_goto_XY(4, 7);
 952:Src/main.c    ****       lcd_send_string(printData);
 953:Src/main.c    **** 
 954:Src/main.c    **** 
 955:Src/main.c    ****       timeLCD = HAL_GetTick();
 956:Src/main.c    ****     }
 957:Src/main.c    ****     
 958:Src/main.c    ****     if ((HAL_GetTick() - timeLED_ESP) >= timeLED)
 959:Src/main.c    ****     {
 960:Src/main.c    ****       HAL_GPIO_TogglePin(LED1_GPIO_Port, LED1_Pin);
 961:Src/main.c    ****       timeLED_ESP = HAL_GetTick();
 962:Src/main.c    ****     }
 963:Src/main.c    ****     
 964:Src/main.c    ****     if (((HAL_GetTick() - timeSIM) >= 10000) && (net_ok == 1))
 965:Src/main.c    ****     {
 966:Src/main.c    ****       uint8_t TCP_data[20] = {0};
 967:Src/main.c    ****       uint32_t CRCFull = 0xFFFF;
 968:Src/main.c    ****       uint32_t temp_c = 0;
 969:Src/main.c    ****       TCP_data[0] = 0x01;
 970:Src/main.c    ****       TCP_data[1] = 0x0B;
 971:Src/main.c    ****       temp_c = (uint32_t)(PM1_0 * 10);
 972:Src/main.c    ****       TCP_data[2] = temp_c / 256;
 973:Src/main.c    ****       TCP_data[3] = temp_c % 256;
 974:Src/main.c    ****       TCP_data[4] = ';';
 975:Src/main.c    ****       temp_c = (uint32_t)(PM2_5 * 10);
 976:Src/main.c    ****       TCP_data[5] = temp_c / 256;
 977:Src/main.c    ****       TCP_data[6] = temp_c % 256;
 978:Src/main.c    ****       TCP_data[7] = ';';
 979:Src/main.c    ****       temp_c = (uint32_t)(PM4_0 * 10);
 980:Src/main.c    ****       TCP_data[8] = temp_c / 256;
 981:Src/main.c    ****       TCP_data[9] = temp_c % 256;
 982:Src/main.c    ****       TCP_data[10] = ';';
 983:Src/main.c    ****       temp_c = (uint32_t)(PM10 * 10);
 984:Src/main.c    ****       TCP_data[11] = temp_c / 256;
 985:Src/main.c    ****       TCP_data[12] = temp_c % 256;
 986:Src/main.c    **** 
 987:Src/main.c    ****       CRCFull = CheckSumCrc16(TCP_data+2, 13);
 988:Src/main.c    **** 
 989:Src/main.c    ****       TCP_data[13] = (uint8_t) (CRCFull & 0xFF);
 990:Src/main.c    ****       TCP_data[14] = (uint8_t) ((CRCFull >> 8) & 0xFF);
 991:Src/main.c    **** 
 992:Src/main.c    ****       TCP_data[15] = (uint8_t) (0xFF - TCP_data[0]);
 993:Src/main.c    ****       TCPClientSendMS(TCP_data);
 994:Src/main.c    ****       timeSIM = HAL_GetTick();
 995:Src/main.c    ****     }
 996:Src/main.c    ****     /* USER CODE END WHILE */
 997:Src/main.c    ****     /* USER CODE BEGIN 3 */
 998:Src/main.c    ****   }
 999:Src/main.c    ****   /* USER CODE END 3 */
1000:Src/main.c    **** }
1001:Src/main.c    **** 
1002:Src/main.c    **** /**
ARM GAS  C:\Users\Vento\AppData\Local\Temp\ccMWL8p6.s 			page 19


1003:Src/main.c    ****   * @brief System Clock Configuration
1004:Src/main.c    ****   * @retval None
1005:Src/main.c    ****   */
1006:Src/main.c    **** void SystemClock_Config(void)
1007:Src/main.c    **** {
1008:Src/main.c    ****   RCC_OscInitTypeDef RCC_OscInitStruct = {0};
1009:Src/main.c    ****   RCC_ClkInitTypeDef RCC_ClkInitStruct = {0};
1010:Src/main.c    ****   RCC_PeriphCLKInitTypeDef PeriphClkInit = {0};
1011:Src/main.c    **** 
1012:Src/main.c    ****   /** Initializes the RCC Oscillators according to the specified parameters
1013:Src/main.c    ****   * in the RCC_OscInitTypeDef structure.
1014:Src/main.c    ****   */
1015:Src/main.c    ****   RCC_OscInitStruct.OscillatorType = RCC_OSCILLATORTYPE_LSI|RCC_OSCILLATORTYPE_HSE;
1016:Src/main.c    ****   RCC_OscInitStruct.HSEState = RCC_HSE_ON;
1017:Src/main.c    ****   RCC_OscInitStruct.HSEPredivValue = RCC_HSE_PREDIV_DIV2;
1018:Src/main.c    ****   RCC_OscInitStruct.HSIState = RCC_HSI_ON;
1019:Src/main.c    ****   RCC_OscInitStruct.LSIState = RCC_LSI_ON;
1020:Src/main.c    ****   RCC_OscInitStruct.PLL.PLLState = RCC_PLL_ON;
1021:Src/main.c    ****   RCC_OscInitStruct.PLL.PLLSource = RCC_PLLSOURCE_HSE;
1022:Src/main.c    ****   RCC_OscInitStruct.PLL.PLLMUL = RCC_PLL_MUL15;
1023:Src/main.c    ****   if (HAL_RCC_OscConfig(&RCC_OscInitStruct) != HAL_OK)
1024:Src/main.c    ****   {
1025:Src/main.c    ****     Error_Handler();
1026:Src/main.c    ****   }
1027:Src/main.c    ****   /** Initializes the CPU, AHB and APB buses clocks
1028:Src/main.c    ****   */
1029:Src/main.c    ****   RCC_ClkInitStruct.ClockType = RCC_CLOCKTYPE_HCLK|RCC_CLOCKTYPE_SYSCLK
1030:Src/main.c    ****                               |RCC_CLOCKTYPE_PCLK1|RCC_CLOCKTYPE_PCLK2;
1031:Src/main.c    ****   RCC_ClkInitStruct.SYSCLKSource = RCC_SYSCLKSOURCE_PLLCLK;
1032:Src/main.c    ****   RCC_ClkInitStruct.AHBCLKDivider = RCC_SYSCLK_DIV1;
1033:Src/main.c    ****   RCC_ClkInitStruct.APB1CLKDivider = RCC_HCLK_DIV2;
1034:Src/main.c    ****   RCC_ClkInitStruct.APB2CLKDivider = RCC_HCLK_DIV1;
1035:Src/main.c    **** 
1036:Src/main.c    ****   if (HAL_RCC_ClockConfig(&RCC_ClkInitStruct, FLASH_LATENCY_2) != HAL_OK)
1037:Src/main.c    ****   {
1038:Src/main.c    ****     Error_Handler();
1039:Src/main.c    ****   }
1040:Src/main.c    ****   PeriphClkInit.PeriphClockSelection = RCC_PERIPHCLK_ADC;
1041:Src/main.c    ****   PeriphClkInit.AdcClockSelection = RCC_ADCPCLK2_DIV6;
1042:Src/main.c    ****   if (HAL_RCCEx_PeriphCLKConfig(&PeriphClkInit) != HAL_OK)
1043:Src/main.c    ****   {
1044:Src/main.c    ****     Error_Handler();
1045:Src/main.c    ****   }
1046:Src/main.c    **** }
1047:Src/main.c    **** 
1048:Src/main.c    **** /**
1049:Src/main.c    ****   * @brief ADC1 Initialization Function
1050:Src/main.c    ****   * @param None
1051:Src/main.c    ****   * @retval None
1052:Src/main.c    ****   */
1053:Src/main.c    **** static void MX_ADC1_Init(void)
1054:Src/main.c    **** {
1055:Src/main.c    **** 
1056:Src/main.c    ****   /* USER CODE BEGIN ADC1_Init 0 */
1057:Src/main.c    **** 
1058:Src/main.c    ****   /* USER CODE END ADC1_Init 0 */
1059:Src/main.c    **** 
ARM GAS  C:\Users\Vento\AppData\Local\Temp\ccMWL8p6.s 			page 20


1060:Src/main.c    ****   ADC_ChannelConfTypeDef sConfig = {0};
1061:Src/main.c    **** 
1062:Src/main.c    ****   /* USER CODE BEGIN ADC1_Init 1 */
1063:Src/main.c    **** 
1064:Src/main.c    ****   /* USER CODE END ADC1_Init 1 */
1065:Src/main.c    ****   /** Common config
1066:Src/main.c    ****   */
1067:Src/main.c    ****   hadc1.Instance = ADC1;
1068:Src/main.c    ****   hadc1.Init.ScanConvMode = ADC_SCAN_DISABLE;
1069:Src/main.c    ****   hadc1.Init.ContinuousConvMode = DISABLE;
1070:Src/main.c    ****   hadc1.Init.DiscontinuousConvMode = DISABLE;
1071:Src/main.c    ****   hadc1.Init.ExternalTrigConv = ADC_SOFTWARE_START;
1072:Src/main.c    ****   hadc1.Init.DataAlign = ADC_DATAALIGN_RIGHT;
1073:Src/main.c    ****   hadc1.Init.NbrOfConversion = 1;
1074:Src/main.c    ****   if (HAL_ADC_Init(&hadc1) != HAL_OK)
1075:Src/main.c    ****   {
1076:Src/main.c    ****     Error_Handler();
1077:Src/main.c    ****   }
1078:Src/main.c    ****   /** Configure Regular Channel
1079:Src/main.c    ****   */
1080:Src/main.c    ****   sConfig.Channel = ADC_CHANNEL_8;
1081:Src/main.c    ****   sConfig.Rank = ADC_REGULAR_RANK_1;
1082:Src/main.c    ****   sConfig.SamplingTime = ADC_SAMPLETIME_1CYCLE_5;
1083:Src/main.c    ****   if (HAL_ADC_ConfigChannel(&hadc1, &sConfig) != HAL_OK)
1084:Src/main.c    ****   {
1085:Src/main.c    ****     Error_Handler();
1086:Src/main.c    ****   }
1087:Src/main.c    ****   /* USER CODE BEGIN ADC1_Init 2 */
1088:Src/main.c    **** 
1089:Src/main.c    ****   /* USER CODE END ADC1_Init 2 */
1090:Src/main.c    **** 
1091:Src/main.c    **** }
1092:Src/main.c    **** 
1093:Src/main.c    **** /**
1094:Src/main.c    ****   * @brief I2C1 Initialization Function
1095:Src/main.c    ****   * @param None
1096:Src/main.c    ****   * @retval None
1097:Src/main.c    ****   */
1098:Src/main.c    **** static void MX_I2C1_Init(void)
1099:Src/main.c    **** {
1100:Src/main.c    **** 
1101:Src/main.c    ****   /* USER CODE BEGIN I2C1_Init 0 */
1102:Src/main.c    **** 
1103:Src/main.c    ****   /* USER CODE END I2C1_Init 0 */
1104:Src/main.c    **** 
1105:Src/main.c    ****   /* USER CODE BEGIN I2C1_Init 1 */
1106:Src/main.c    **** 
1107:Src/main.c    ****   /* USER CODE END I2C1_Init 1 */
1108:Src/main.c    ****   hi2c1.Instance = I2C1;
1109:Src/main.c    ****   hi2c1.Init.ClockSpeed = 100000;
1110:Src/main.c    ****   hi2c1.Init.DutyCycle = I2C_DUTYCYCLE_2;
1111:Src/main.c    ****   hi2c1.Init.OwnAddress1 = 0;
1112:Src/main.c    ****   hi2c1.Init.AddressingMode = I2C_ADDRESSINGMODE_7BIT;
1113:Src/main.c    ****   hi2c1.Init.DualAddressMode = I2C_DUALADDRESS_DISABLE;
1114:Src/main.c    ****   hi2c1.Init.OwnAddress2 = 0;
1115:Src/main.c    ****   hi2c1.Init.GeneralCallMode = I2C_GENERALCALL_DISABLE;
1116:Src/main.c    ****   hi2c1.Init.NoStretchMode = I2C_NOSTRETCH_DISABLE;
ARM GAS  C:\Users\Vento\AppData\Local\Temp\ccMWL8p6.s 			page 21


1117:Src/main.c    ****   if (HAL_I2C_Init(&hi2c1) != HAL_OK)
1118:Src/main.c    ****   {
1119:Src/main.c    ****     Error_Handler();
1120:Src/main.c    ****   }
1121:Src/main.c    ****   /* USER CODE BEGIN I2C1_Init 2 */
1122:Src/main.c    **** 
1123:Src/main.c    ****   /* USER CODE END I2C1_Init 2 */
1124:Src/main.c    **** 
1125:Src/main.c    **** }
1126:Src/main.c    **** 
1127:Src/main.c    **** /**
1128:Src/main.c    ****   * @brief IWDG Initialization Function
1129:Src/main.c    ****   * @param None
1130:Src/main.c    ****   * @retval None
1131:Src/main.c    ****   */
1132:Src/main.c    **** static void MX_IWDG_Init(void)
1133:Src/main.c    **** {
1134:Src/main.c    **** 
1135:Src/main.c    ****   /* USER CODE BEGIN IWDG_Init 0 */
1136:Src/main.c    **** 
1137:Src/main.c    ****   /* USER CODE END IWDG_Init 0 */
1138:Src/main.c    **** 
1139:Src/main.c    ****   /* USER CODE BEGIN IWDG_Init 1 */
1140:Src/main.c    **** 
1141:Src/main.c    ****   /* USER CODE END IWDG_Init 1 */
1142:Src/main.c    ****   hiwdg.Instance = IWDG;
1143:Src/main.c    ****   hiwdg.Init.Prescaler = IWDG_PRESCALER_256;
1144:Src/main.c    ****   hiwdg.Init.Reload = 4000;
1145:Src/main.c    ****   if (HAL_IWDG_Init(&hiwdg) != HAL_OK)
1146:Src/main.c    ****   {
1147:Src/main.c    ****     Error_Handler();
1148:Src/main.c    ****   }
1149:Src/main.c    ****   /* USER CODE BEGIN IWDG_Init 2 */
1150:Src/main.c    **** 
1151:Src/main.c    ****   /* USER CODE END IWDG_Init 2 */
1152:Src/main.c    **** 
1153:Src/main.c    **** }
1154:Src/main.c    **** 
1155:Src/main.c    **** /**
1156:Src/main.c    ****   * @brief SPI1 Initialization Function
1157:Src/main.c    ****   * @param None
1158:Src/main.c    ****   * @retval None
1159:Src/main.c    ****   */
1160:Src/main.c    **** static void MX_SPI1_Init(void)
1161:Src/main.c    **** {
1162:Src/main.c    **** 
1163:Src/main.c    ****   /* USER CODE BEGIN SPI1_Init 0 */
1164:Src/main.c    **** 
1165:Src/main.c    ****   /* USER CODE END SPI1_Init 0 */
1166:Src/main.c    **** 
1167:Src/main.c    ****   /* USER CODE BEGIN SPI1_Init 1 */
1168:Src/main.c    **** 
1169:Src/main.c    ****   /* USER CODE END SPI1_Init 1 */
1170:Src/main.c    ****   /* SPI1 parameter configuration*/
1171:Src/main.c    ****   hspi1.Instance = SPI1;
1172:Src/main.c    ****   hspi1.Init.Mode = SPI_MODE_MASTER;
1173:Src/main.c    ****   hspi1.Init.Direction = SPI_DIRECTION_2LINES;
ARM GAS  C:\Users\Vento\AppData\Local\Temp\ccMWL8p6.s 			page 22


1174:Src/main.c    ****   hspi1.Init.DataSize = SPI_DATASIZE_8BIT;
1175:Src/main.c    ****   hspi1.Init.CLKPolarity = SPI_POLARITY_LOW;
1176:Src/main.c    ****   hspi1.Init.CLKPhase = SPI_PHASE_1EDGE;
1177:Src/main.c    ****   hspi1.Init.NSS = SPI_NSS_SOFT;
1178:Src/main.c    ****   hspi1.Init.BaudRatePrescaler = SPI_BAUDRATEPRESCALER_16;
1179:Src/main.c    ****   hspi1.Init.FirstBit = SPI_FIRSTBIT_MSB;
1180:Src/main.c    ****   hspi1.Init.TIMode = SPI_TIMODE_DISABLE;
1181:Src/main.c    ****   hspi1.Init.CRCCalculation = SPI_CRCCALCULATION_DISABLE;
1182:Src/main.c    ****   hspi1.Init.CRCPolynomial = 10;
1183:Src/main.c    ****   if (HAL_SPI_Init(&hspi1) != HAL_OK)
1184:Src/main.c    ****   {
1185:Src/main.c    ****     Error_Handler();
1186:Src/main.c    ****   }
1187:Src/main.c    ****   /* USER CODE BEGIN SPI1_Init 2 */
1188:Src/main.c    **** 
1189:Src/main.c    ****   /* USER CODE END SPI1_Init 2 */
1190:Src/main.c    **** 
1191:Src/main.c    **** }
1192:Src/main.c    **** 
1193:Src/main.c    **** /**
1194:Src/main.c    ****   * @brief SPI2 Initialization Function
1195:Src/main.c    ****   * @param None
1196:Src/main.c    ****   * @retval None
1197:Src/main.c    ****   */
1198:Src/main.c    **** static void MX_SPI2_Init(void)
1199:Src/main.c    **** {
1200:Src/main.c    **** 
1201:Src/main.c    ****   /* USER CODE BEGIN SPI2_Init 0 */
1202:Src/main.c    **** 
1203:Src/main.c    ****   /* USER CODE END SPI2_Init 0 */
1204:Src/main.c    **** 
1205:Src/main.c    ****   /* USER CODE BEGIN SPI2_Init 1 */
1206:Src/main.c    **** 
1207:Src/main.c    ****   /* USER CODE END SPI2_Init 1 */
1208:Src/main.c    ****   /* SPI2 parameter configuration*/
1209:Src/main.c    ****   hspi2.Instance = SPI2;
1210:Src/main.c    ****   hspi2.Init.Mode = SPI_MODE_MASTER;
1211:Src/main.c    ****   hspi2.Init.Direction = SPI_DIRECTION_2LINES;
1212:Src/main.c    ****   hspi2.Init.DataSize = SPI_DATASIZE_8BIT;
1213:Src/main.c    ****   hspi2.Init.CLKPolarity = SPI_POLARITY_LOW;
1214:Src/main.c    ****   hspi2.Init.CLKPhase = SPI_PHASE_1EDGE;
1215:Src/main.c    ****   hspi2.Init.NSS = SPI_NSS_SOFT;
1216:Src/main.c    ****   hspi2.Init.BaudRatePrescaler = SPI_BAUDRATEPRESCALER_4;
1217:Src/main.c    ****   hspi2.Init.FirstBit = SPI_FIRSTBIT_MSB;
1218:Src/main.c    ****   hspi2.Init.TIMode = SPI_TIMODE_DISABLE;
1219:Src/main.c    ****   hspi2.Init.CRCCalculation = SPI_CRCCALCULATION_DISABLE;
1220:Src/main.c    ****   hspi2.Init.CRCPolynomial = 10;
1221:Src/main.c    ****   if (HAL_SPI_Init(&hspi2) != HAL_OK)
1222:Src/main.c    ****   {
1223:Src/main.c    ****     Error_Handler();
1224:Src/main.c    ****   }
1225:Src/main.c    ****   /* USER CODE BEGIN SPI2_Init 2 */
1226:Src/main.c    **** 
1227:Src/main.c    ****   /* USER CODE END SPI2_Init 2 */
1228:Src/main.c    **** 
1229:Src/main.c    **** }
1230:Src/main.c    **** 
ARM GAS  C:\Users\Vento\AppData\Local\Temp\ccMWL8p6.s 			page 23


1231:Src/main.c    **** /**
1232:Src/main.c    ****   * @brief TIM2 Initialization Function
1233:Src/main.c    ****   * @param None
1234:Src/main.c    ****   * @retval None
1235:Src/main.c    ****   */
1236:Src/main.c    **** static void MX_TIM2_Init(void)
1237:Src/main.c    **** {
1238:Src/main.c    **** 
1239:Src/main.c    ****   /* USER CODE BEGIN TIM2_Init 0 */
1240:Src/main.c    **** 
1241:Src/main.c    ****   /* USER CODE END TIM2_Init 0 */
1242:Src/main.c    **** 
1243:Src/main.c    ****   TIM_ClockConfigTypeDef sClockSourceConfig = {0};
1244:Src/main.c    ****   TIM_MasterConfigTypeDef sMasterConfig = {0};
1245:Src/main.c    **** 
1246:Src/main.c    ****   /* USER CODE BEGIN TIM2_Init 1 */
1247:Src/main.c    **** 
1248:Src/main.c    ****   /* USER CODE END TIM2_Init 1 */
1249:Src/main.c    ****   htim2.Instance = TIM2;
1250:Src/main.c    ****   htim2.Init.Prescaler = 59;
1251:Src/main.c    ****   htim2.Init.CounterMode = TIM_COUNTERMODE_UP;
1252:Src/main.c    ****   htim2.Init.Period = 17999;
1253:Src/main.c    ****   htim2.Init.ClockDivision = TIM_CLOCKDIVISION_DIV1;
1254:Src/main.c    ****   htim2.Init.AutoReloadPreload = TIM_AUTORELOAD_PRELOAD_DISABLE;
1255:Src/main.c    ****   if (HAL_TIM_Base_Init(&htim2) != HAL_OK)
1256:Src/main.c    ****   {
1257:Src/main.c    ****     Error_Handler();
1258:Src/main.c    ****   }
1259:Src/main.c    ****   sClockSourceConfig.ClockSource = TIM_CLOCKSOURCE_INTERNAL;
1260:Src/main.c    ****   if (HAL_TIM_ConfigClockSource(&htim2, &sClockSourceConfig) != HAL_OK)
1261:Src/main.c    ****   {
1262:Src/main.c    ****     Error_Handler();
1263:Src/main.c    ****   }
1264:Src/main.c    ****   sMasterConfig.MasterOutputTrigger = TIM_TRGO_RESET;
1265:Src/main.c    ****   sMasterConfig.MasterSlaveMode = TIM_MASTERSLAVEMODE_DISABLE;
1266:Src/main.c    ****   if (HAL_TIMEx_MasterConfigSynchronization(&htim2, &sMasterConfig) != HAL_OK)
1267:Src/main.c    ****   {
1268:Src/main.c    ****     Error_Handler();
1269:Src/main.c    ****   }
1270:Src/main.c    ****   /* USER CODE BEGIN TIM2_Init 2 */
1271:Src/main.c    **** 
1272:Src/main.c    ****   /* USER CODE END TIM2_Init 2 */
1273:Src/main.c    **** 
1274:Src/main.c    **** }
1275:Src/main.c    **** 
1276:Src/main.c    **** /**
1277:Src/main.c    ****   * @brief TIM3 Initialization Function
1278:Src/main.c    ****   * @param None
1279:Src/main.c    ****   * @retval None
1280:Src/main.c    ****   */
1281:Src/main.c    **** static void MX_TIM3_Init(void)
1282:Src/main.c    **** {
1283:Src/main.c    **** 
1284:Src/main.c    ****   /* USER CODE BEGIN TIM3_Init 0 */
1285:Src/main.c    **** 
1286:Src/main.c    ****   /* USER CODE END TIM3_Init 0 */
1287:Src/main.c    **** 
ARM GAS  C:\Users\Vento\AppData\Local\Temp\ccMWL8p6.s 			page 24


1288:Src/main.c    ****   TIM_ClockConfigTypeDef sClockSourceConfig = {0};
1289:Src/main.c    ****   TIM_MasterConfigTypeDef sMasterConfig = {0};
1290:Src/main.c    **** 
1291:Src/main.c    ****   /* USER CODE BEGIN TIM3_Init 1 */
1292:Src/main.c    **** 
1293:Src/main.c    ****   /* USER CODE END TIM3_Init 1 */
1294:Src/main.c    ****   htim3.Instance = TIM3;
1295:Src/main.c    ****   htim3.Init.Prescaler = 599;
1296:Src/main.c    ****   htim3.Init.CounterMode = TIM_COUNTERMODE_UP;
1297:Src/main.c    ****   htim3.Init.Period = 11999;
1298:Src/main.c    ****   htim3.Init.ClockDivision = TIM_CLOCKDIVISION_DIV1;
1299:Src/main.c    ****   htim3.Init.AutoReloadPreload = TIM_AUTORELOAD_PRELOAD_DISABLE;
1300:Src/main.c    ****   if (HAL_TIM_Base_Init(&htim3) != HAL_OK)
1301:Src/main.c    ****   {
1302:Src/main.c    ****     Error_Handler();
1303:Src/main.c    ****   }
1304:Src/main.c    ****   sClockSourceConfig.ClockSource = TIM_CLOCKSOURCE_INTERNAL;
1305:Src/main.c    ****   if (HAL_TIM_ConfigClockSource(&htim3, &sClockSourceConfig) != HAL_OK)
1306:Src/main.c    ****   {
1307:Src/main.c    ****     Error_Handler();
1308:Src/main.c    ****   }
1309:Src/main.c    ****   sMasterConfig.MasterOutputTrigger = TIM_TRGO_RESET;
1310:Src/main.c    ****   sMasterConfig.MasterSlaveMode = TIM_MASTERSLAVEMODE_DISABLE;
1311:Src/main.c    ****   if (HAL_TIMEx_MasterConfigSynchronization(&htim3, &sMasterConfig) != HAL_OK)
1312:Src/main.c    ****   {
1313:Src/main.c    ****     Error_Handler();
1314:Src/main.c    ****   }
1315:Src/main.c    ****   /* USER CODE BEGIN TIM3_Init 2 */
1316:Src/main.c    **** 
1317:Src/main.c    ****   /* USER CODE END TIM3_Init 2 */
1318:Src/main.c    **** 
1319:Src/main.c    **** }
1320:Src/main.c    **** 
1321:Src/main.c    **** /**
1322:Src/main.c    ****   * @brief TIM4 Initialization Function
1323:Src/main.c    ****   * @param None
1324:Src/main.c    ****   * @retval None
1325:Src/main.c    ****   */
1326:Src/main.c    **** static void MX_TIM4_Init(void)
1327:Src/main.c    **** {
1328:Src/main.c    **** 
1329:Src/main.c    ****   /* USER CODE BEGIN TIM4_Init 0 */
1330:Src/main.c    **** 
1331:Src/main.c    ****   /* USER CODE END TIM4_Init 0 */
1332:Src/main.c    **** 
1333:Src/main.c    ****   TIM_ClockConfigTypeDef sClockSourceConfig = {0};
1334:Src/main.c    ****   TIM_MasterConfigTypeDef sMasterConfig = {0};
1335:Src/main.c    **** 
1336:Src/main.c    ****   /* USER CODE BEGIN TIM4_Init 1 */
1337:Src/main.c    **** 
1338:Src/main.c    ****   /* USER CODE END TIM4_Init 1 */
1339:Src/main.c    ****   htim4.Instance = TIM4;
1340:Src/main.c    ****   htim4.Init.Prescaler = 59;
1341:Src/main.c    ****   htim4.Init.CounterMode = TIM_COUNTERMODE_UP;
1342:Src/main.c    ****   htim4.Init.Period = 65535;
1343:Src/main.c    ****   htim4.Init.ClockDivision = TIM_CLOCKDIVISION_DIV1;
1344:Src/main.c    ****   htim4.Init.AutoReloadPreload = TIM_AUTORELOAD_PRELOAD_DISABLE;
ARM GAS  C:\Users\Vento\AppData\Local\Temp\ccMWL8p6.s 			page 25


1345:Src/main.c    ****   if (HAL_TIM_Base_Init(&htim4) != HAL_OK)
1346:Src/main.c    ****   {
1347:Src/main.c    ****     Error_Handler();
1348:Src/main.c    ****   }
1349:Src/main.c    ****   sClockSourceConfig.ClockSource = TIM_CLOCKSOURCE_INTERNAL;
1350:Src/main.c    ****   if (HAL_TIM_ConfigClockSource(&htim4, &sClockSourceConfig) != HAL_OK)
1351:Src/main.c    ****   {
1352:Src/main.c    ****     Error_Handler();
1353:Src/main.c    ****   }
1354:Src/main.c    ****   sMasterConfig.MasterOutputTrigger = TIM_TRGO_RESET;
1355:Src/main.c    ****   sMasterConfig.MasterSlaveMode = TIM_MASTERSLAVEMODE_DISABLE;
1356:Src/main.c    ****   if (HAL_TIMEx_MasterConfigSynchronization(&htim4, &sMasterConfig) != HAL_OK)
1357:Src/main.c    ****   {
1358:Src/main.c    ****     Error_Handler();
1359:Src/main.c    ****   }
1360:Src/main.c    ****   /* USER CODE BEGIN TIM4_Init 2 */
1361:Src/main.c    **** 
1362:Src/main.c    ****   /* USER CODE END TIM4_Init 2 */
1363:Src/main.c    **** 
1364:Src/main.c    **** }
1365:Src/main.c    **** 
1366:Src/main.c    **** /**
1367:Src/main.c    ****   * @brief TIM5 Initialization Function
1368:Src/main.c    ****   * @param None
1369:Src/main.c    ****   * @retval None
1370:Src/main.c    ****   */
1371:Src/main.c    **** static void MX_TIM5_Init(void)
1372:Src/main.c    **** {
1373:Src/main.c    **** 
1374:Src/main.c    ****   /* USER CODE BEGIN TIM5_Init 0 */
1375:Src/main.c    **** 
1376:Src/main.c    ****   /* USER CODE END TIM5_Init 0 */
1377:Src/main.c    **** 
1378:Src/main.c    ****   TIM_MasterConfigTypeDef sMasterConfig = {0};
1379:Src/main.c    ****   TIM_OC_InitTypeDef sConfigOC = {0};
1380:Src/main.c    **** 
1381:Src/main.c    ****   /* USER CODE BEGIN TIM5_Init 1 */
1382:Src/main.c    **** 
1383:Src/main.c    ****   /* USER CODE END TIM5_Init 1 */
1384:Src/main.c    ****   htim5.Instance = TIM5;
1385:Src/main.c    ****   htim5.Init.Prescaler = 59999;
1386:Src/main.c    ****   htim5.Init.CounterMode = TIM_COUNTERMODE_UP;
1387:Src/main.c    ****   htim5.Init.Period = 100;
1388:Src/main.c    ****   htim5.Init.ClockDivision = TIM_CLOCKDIVISION_DIV1;
1389:Src/main.c    ****   htim5.Init.AutoReloadPreload = TIM_AUTORELOAD_PRELOAD_DISABLE;
1390:Src/main.c    ****   if (HAL_TIM_PWM_Init(&htim5) != HAL_OK)
1391:Src/main.c    ****   {
1392:Src/main.c    ****     Error_Handler();
1393:Src/main.c    ****   }
1394:Src/main.c    ****   sMasterConfig.MasterOutputTrigger = TIM_TRGO_RESET;
1395:Src/main.c    ****   sMasterConfig.MasterSlaveMode = TIM_MASTERSLAVEMODE_DISABLE;
1396:Src/main.c    ****   if (HAL_TIMEx_MasterConfigSynchronization(&htim5, &sMasterConfig) != HAL_OK)
1397:Src/main.c    ****   {
1398:Src/main.c    ****     Error_Handler();
1399:Src/main.c    ****   }
1400:Src/main.c    ****   sConfigOC.OCMode = TIM_OCMODE_PWM1;
1401:Src/main.c    ****   sConfigOC.Pulse = 100;
ARM GAS  C:\Users\Vento\AppData\Local\Temp\ccMWL8p6.s 			page 26


1402:Src/main.c    ****   sConfigOC.OCPolarity = TIM_OCPOLARITY_HIGH;
1403:Src/main.c    ****   sConfigOC.OCFastMode = TIM_OCFAST_DISABLE;
1404:Src/main.c    ****   if (HAL_TIM_PWM_ConfigChannel(&htim5, &sConfigOC, TIM_CHANNEL_2) != HAL_OK)
1405:Src/main.c    ****   {
1406:Src/main.c    ****     Error_Handler();
1407:Src/main.c    ****   }
1408:Src/main.c    ****   /* USER CODE BEGIN TIM5_Init 2 */
1409:Src/main.c    **** 
1410:Src/main.c    ****   /* USER CODE END TIM5_Init 2 */
1411:Src/main.c    ****   HAL_TIM_MspPostInit(&htim5);
1412:Src/main.c    **** 
1413:Src/main.c    **** }
1414:Src/main.c    **** 
1415:Src/main.c    **** /**
1416:Src/main.c    ****   * @brief TIM6 Initialization Function
1417:Src/main.c    ****   * @param None
1418:Src/main.c    ****   * @retval None
1419:Src/main.c    ****   */
1420:Src/main.c    **** static void MX_TIM6_Init(void)
1421:Src/main.c    **** {
1422:Src/main.c    **** 
1423:Src/main.c    ****   /* USER CODE BEGIN TIM6_Init 0 */
1424:Src/main.c    **** 
1425:Src/main.c    ****   /* USER CODE END TIM6_Init 0 */
1426:Src/main.c    **** 
1427:Src/main.c    ****   TIM_MasterConfigTypeDef sMasterConfig = {0};
1428:Src/main.c    **** 
1429:Src/main.c    ****   /* USER CODE BEGIN TIM6_Init 1 */
1430:Src/main.c    **** 
1431:Src/main.c    ****   /* USER CODE END TIM6_Init 1 */
1432:Src/main.c    ****   htim6.Instance = TIM6;
1433:Src/main.c    ****   htim6.Init.Prescaler = 59;
1434:Src/main.c    ****   htim6.Init.CounterMode = TIM_COUNTERMODE_UP;
1435:Src/main.c    ****   htim6.Init.Period = 17999;
1436:Src/main.c    ****   htim6.Init.AutoReloadPreload = TIM_AUTORELOAD_PRELOAD_DISABLE;
1437:Src/main.c    ****   if (HAL_TIM_Base_Init(&htim6) != HAL_OK)
1438:Src/main.c    ****   {
1439:Src/main.c    ****     Error_Handler();
1440:Src/main.c    ****   }
1441:Src/main.c    ****   sMasterConfig.MasterOutputTrigger = TIM_TRGO_RESET;
1442:Src/main.c    ****   sMasterConfig.MasterSlaveMode = TIM_MASTERSLAVEMODE_DISABLE;
1443:Src/main.c    ****   if (HAL_TIMEx_MasterConfigSynchronization(&htim6, &sMasterConfig) != HAL_OK)
1444:Src/main.c    ****   {
1445:Src/main.c    ****     Error_Handler();
1446:Src/main.c    ****   }
1447:Src/main.c    ****   /* USER CODE BEGIN TIM6_Init 2 */
1448:Src/main.c    **** 
1449:Src/main.c    ****   /* USER CODE END TIM6_Init 2 */
1450:Src/main.c    **** 
1451:Src/main.c    **** }
1452:Src/main.c    **** 
1453:Src/main.c    **** /**
1454:Src/main.c    ****   * @brief UART4 Initialization Function
1455:Src/main.c    ****   * @param None
1456:Src/main.c    ****   * @retval None
1457:Src/main.c    ****   */
1458:Src/main.c    **** static void MX_UART4_Init(void)
ARM GAS  C:\Users\Vento\AppData\Local\Temp\ccMWL8p6.s 			page 27


1459:Src/main.c    **** {
1460:Src/main.c    **** 
1461:Src/main.c    ****   /* USER CODE BEGIN UART4_Init 0 */
1462:Src/main.c    **** 
1463:Src/main.c    ****   /* USER CODE END UART4_Init 0 */
1464:Src/main.c    **** 
1465:Src/main.c    ****   /* USER CODE BEGIN UART4_Init 1 */
1466:Src/main.c    **** 
1467:Src/main.c    ****   /* USER CODE END UART4_Init 1 */
1468:Src/main.c    ****   huart4.Instance = UART4;
1469:Src/main.c    ****   huart4.Init.BaudRate = 115200;
1470:Src/main.c    ****   huart4.Init.WordLength = UART_WORDLENGTH_8B;
1471:Src/main.c    ****   huart4.Init.StopBits = UART_STOPBITS_1;
1472:Src/main.c    ****   huart4.Init.Parity = UART_PARITY_NONE;
1473:Src/main.c    ****   huart4.Init.Mode = UART_MODE_TX_RX;
1474:Src/main.c    ****   huart4.Init.HwFlowCtl = UART_HWCONTROL_NONE;
1475:Src/main.c    ****   huart4.Init.OverSampling = UART_OVERSAMPLING_16;
1476:Src/main.c    ****   if (HAL_UART_Init(&huart4) != HAL_OK)
1477:Src/main.c    ****   {
1478:Src/main.c    ****     Error_Handler();
1479:Src/main.c    ****   }
1480:Src/main.c    ****   /* USER CODE BEGIN UART4_Init 2 */
1481:Src/main.c    **** 
1482:Src/main.c    ****   /* USER CODE END UART4_Init 2 */
1483:Src/main.c    **** 
1484:Src/main.c    **** }
1485:Src/main.c    **** 
1486:Src/main.c    **** /**
1487:Src/main.c    ****   * @brief UART5 Initialization Function
1488:Src/main.c    ****   * @param None
1489:Src/main.c    ****   * @retval None
1490:Src/main.c    ****   */
1491:Src/main.c    **** static void MX_UART5_Init(void)
1492:Src/main.c    **** {
1493:Src/main.c    **** 
1494:Src/main.c    ****   /* USER CODE BEGIN UART5_Init 0 */
1495:Src/main.c    **** 
1496:Src/main.c    ****   /* USER CODE END UART5_Init 0 */
1497:Src/main.c    **** 
1498:Src/main.c    ****   /* USER CODE BEGIN UART5_Init 1 */
1499:Src/main.c    **** 
1500:Src/main.c    ****   /* USER CODE END UART5_Init 1 */
1501:Src/main.c    ****   huart5.Instance = UART5;
1502:Src/main.c    ****   huart5.Init.BaudRate = 115200;
1503:Src/main.c    ****   huart5.Init.WordLength = UART_WORDLENGTH_8B;
1504:Src/main.c    ****   huart5.Init.StopBits = UART_STOPBITS_1;
1505:Src/main.c    ****   huart5.Init.Parity = UART_PARITY_NONE;
1506:Src/main.c    ****   huart5.Init.Mode = UART_MODE_TX_RX;
1507:Src/main.c    ****   huart5.Init.HwFlowCtl = UART_HWCONTROL_NONE;
1508:Src/main.c    ****   huart5.Init.OverSampling = UART_OVERSAMPLING_16;
1509:Src/main.c    ****   if (HAL_UART_Init(&huart5) != HAL_OK)
1510:Src/main.c    ****   {
1511:Src/main.c    ****     Error_Handler();
1512:Src/main.c    ****   }
1513:Src/main.c    ****   /* USER CODE BEGIN UART5_Init 2 */
1514:Src/main.c    **** 
1515:Src/main.c    ****   /* USER CODE END UART5_Init 2 */
ARM GAS  C:\Users\Vento\AppData\Local\Temp\ccMWL8p6.s 			page 28


1516:Src/main.c    **** 
1517:Src/main.c    **** }
1518:Src/main.c    **** 
1519:Src/main.c    **** /**
1520:Src/main.c    ****   * @brief USART1 Initialization Function
1521:Src/main.c    ****   * @param None
1522:Src/main.c    ****   * @retval None
1523:Src/main.c    ****   */
1524:Src/main.c    **** static void MX_USART1_UART_Init(void)
1525:Src/main.c    **** {
1526:Src/main.c    **** 
1527:Src/main.c    ****   /* USER CODE BEGIN USART1_Init 0 */
1528:Src/main.c    **** 
1529:Src/main.c    ****   /* USER CODE END USART1_Init 0 */
1530:Src/main.c    **** 
1531:Src/main.c    ****   /* USER CODE BEGIN USART1_Init 1 */
1532:Src/main.c    **** 
1533:Src/main.c    ****   /* USER CODE END USART1_Init 1 */
1534:Src/main.c    ****   huart1.Instance = USART1;
1535:Src/main.c    ****   huart1.Init.BaudRate = 115200;
1536:Src/main.c    ****   huart1.Init.WordLength = UART_WORDLENGTH_8B;
1537:Src/main.c    ****   huart1.Init.StopBits = UART_STOPBITS_1;
1538:Src/main.c    ****   huart1.Init.Parity = UART_PARITY_NONE;
1539:Src/main.c    ****   huart1.Init.Mode = UART_MODE_TX_RX;
1540:Src/main.c    ****   huart1.Init.HwFlowCtl = UART_HWCONTROL_NONE;
1541:Src/main.c    ****   huart1.Init.OverSampling = UART_OVERSAMPLING_16;
1542:Src/main.c    ****   if (HAL_UART_Init(&huart1) != HAL_OK)
1543:Src/main.c    ****   {
1544:Src/main.c    ****     Error_Handler();
1545:Src/main.c    ****   }
1546:Src/main.c    ****   /* USER CODE BEGIN USART1_Init 2 */
1547:Src/main.c    **** 
1548:Src/main.c    ****   /* USER CODE END USART1_Init 2 */
1549:Src/main.c    **** 
1550:Src/main.c    **** }
1551:Src/main.c    **** 
1552:Src/main.c    **** /**
1553:Src/main.c    ****   * @brief USART2 Initialization Function
1554:Src/main.c    ****   * @param None
1555:Src/main.c    ****   * @retval None
1556:Src/main.c    ****   */
1557:Src/main.c    **** static void MX_USART2_UART_Init(void)
1558:Src/main.c    **** {
1559:Src/main.c    **** 
1560:Src/main.c    ****   /* USER CODE BEGIN USART2_Init 0 */
1561:Src/main.c    **** 
1562:Src/main.c    ****   /* USER CODE END USART2_Init 0 */
1563:Src/main.c    **** 
1564:Src/main.c    ****   /* USER CODE BEGIN USART2_Init 1 */
1565:Src/main.c    **** 
1566:Src/main.c    ****   /* USER CODE END USART2_Init 1 */
1567:Src/main.c    ****   huart2.Instance = USART2;
1568:Src/main.c    ****   huart2.Init.BaudRate = 115200;
1569:Src/main.c    ****   huart2.Init.WordLength = UART_WORDLENGTH_8B;
1570:Src/main.c    ****   huart2.Init.StopBits = UART_STOPBITS_1;
1571:Src/main.c    ****   huart2.Init.Parity = UART_PARITY_NONE;
1572:Src/main.c    ****   huart2.Init.Mode = UART_MODE_TX_RX;
ARM GAS  C:\Users\Vento\AppData\Local\Temp\ccMWL8p6.s 			page 29


1573:Src/main.c    ****   huart2.Init.HwFlowCtl = UART_HWCONTROL_NONE;
1574:Src/main.c    ****   huart2.Init.OverSampling = UART_OVERSAMPLING_16;
1575:Src/main.c    ****   if (HAL_UART_Init(&huart2) != HAL_OK)
1576:Src/main.c    ****   {
1577:Src/main.c    ****     Error_Handler();
1578:Src/main.c    ****   }
1579:Src/main.c    ****   /* USER CODE BEGIN USART2_Init 2 */
1580:Src/main.c    **** 
1581:Src/main.c    ****   /* USER CODE END USART2_Init 2 */
1582:Src/main.c    **** 
1583:Src/main.c    **** }
1584:Src/main.c    **** 
1585:Src/main.c    **** /**
1586:Src/main.c    ****   * @brief USART3 Initialization Function
1587:Src/main.c    ****   * @param None
1588:Src/main.c    ****   * @retval None
1589:Src/main.c    ****   */
1590:Src/main.c    **** static void MX_USART3_UART_Init(void)
1591:Src/main.c    **** {
1592:Src/main.c    **** 
1593:Src/main.c    ****   /* USER CODE BEGIN USART3_Init 0 */
1594:Src/main.c    **** 
1595:Src/main.c    ****   /* USER CODE END USART3_Init 0 */
1596:Src/main.c    **** 
1597:Src/main.c    ****   /* USER CODE BEGIN USART3_Init 1 */
1598:Src/main.c    **** 
1599:Src/main.c    ****   /* USER CODE END USART3_Init 1 */
1600:Src/main.c    ****   huart3.Instance = USART3;
1601:Src/main.c    ****   huart3.Init.BaudRate = 115200;
1602:Src/main.c    ****   huart3.Init.WordLength = UART_WORDLENGTH_8B;
1603:Src/main.c    ****   huart3.Init.StopBits = UART_STOPBITS_1;
1604:Src/main.c    ****   huart3.Init.Parity = UART_PARITY_NONE;
1605:Src/main.c    ****   huart3.Init.Mode = UART_MODE_TX_RX;
1606:Src/main.c    ****   huart3.Init.HwFlowCtl = UART_HWCONTROL_NONE;
1607:Src/main.c    ****   huart3.Init.OverSampling = UART_OVERSAMPLING_16;
1608:Src/main.c    ****   if (HAL_UART_Init(&huart3) != HAL_OK)
1609:Src/main.c    ****   {
1610:Src/main.c    ****     Error_Handler();
1611:Src/main.c    ****   }
1612:Src/main.c    ****   /* USER CODE BEGIN USART3_Init 2 */
1613:Src/main.c    **** 
1614:Src/main.c    ****   /* USER CODE END USART3_Init 2 */
1615:Src/main.c    **** 
1616:Src/main.c    **** }
1617:Src/main.c    **** 
1618:Src/main.c    **** /**
1619:Src/main.c    ****   * @brief GPIO Initialization Function
1620:Src/main.c    ****   * @param None
1621:Src/main.c    ****   * @retval None
1622:Src/main.c    ****   */
1623:Src/main.c    **** static void MX_GPIO_Init(void)
1624:Src/main.c    **** {
  26              		.loc 1 1624 1 view -0
  27              		.cfi_startproc
  28              		@ args = 0, pretend = 0, frame = 32
  29              		@ frame_needed = 0, uses_anonymous_args = 0
  30 0000 2DE9F043 		push	{r4, r5, r6, r7, r8, r9, lr}
ARM GAS  C:\Users\Vento\AppData\Local\Temp\ccMWL8p6.s 			page 30


  31              	.LCFI0:
  32              		.cfi_def_cfa_offset 28
  33              		.cfi_offset 4, -28
  34              		.cfi_offset 5, -24
  35              		.cfi_offset 6, -20
  36              		.cfi_offset 7, -16
  37              		.cfi_offset 8, -12
  38              		.cfi_offset 9, -8
  39              		.cfi_offset 14, -4
  40 0004 89B0     		sub	sp, sp, #36
  41              	.LCFI1:
  42              		.cfi_def_cfa_offset 64
1625:Src/main.c    ****   GPIO_InitTypeDef GPIO_InitStruct = {0};
  43              		.loc 1 1625 3 view .LVU1
  44              		.loc 1 1625 20 is_stmt 0 view .LVU2
  45 0006 0024     		movs	r4, #0
  46 0008 0494     		str	r4, [sp, #16]
  47 000a 0594     		str	r4, [sp, #20]
  48 000c 0694     		str	r4, [sp, #24]
  49 000e 0794     		str	r4, [sp, #28]
1626:Src/main.c    **** 
1627:Src/main.c    ****   /* GPIO Ports Clock Enable */
1628:Src/main.c    ****   __HAL_RCC_GPIOC_CLK_ENABLE();
  50              		.loc 1 1628 3 is_stmt 1 view .LVU3
  51              	.LBB16:
  52              		.loc 1 1628 3 view .LVU4
  53              		.loc 1 1628 3 view .LVU5
  54 0010 494B     		ldr	r3, .L3
  55 0012 9A69     		ldr	r2, [r3, #24]
  56 0014 42F01002 		orr	r2, r2, #16
  57 0018 9A61     		str	r2, [r3, #24]
  58              		.loc 1 1628 3 view .LVU6
  59 001a 9A69     		ldr	r2, [r3, #24]
  60 001c 02F01002 		and	r2, r2, #16
  61 0020 0092     		str	r2, [sp]
  62              		.loc 1 1628 3 view .LVU7
  63 0022 009A     		ldr	r2, [sp]
  64              	.LBE16:
  65              		.loc 1 1628 3 view .LVU8
1629:Src/main.c    ****   __HAL_RCC_GPIOD_CLK_ENABLE();
  66              		.loc 1 1629 3 view .LVU9
  67              	.LBB17:
  68              		.loc 1 1629 3 view .LVU10
  69              		.loc 1 1629 3 view .LVU11
  70 0024 9A69     		ldr	r2, [r3, #24]
  71 0026 42F02002 		orr	r2, r2, #32
  72 002a 9A61     		str	r2, [r3, #24]
  73              		.loc 1 1629 3 view .LVU12
  74 002c 9A69     		ldr	r2, [r3, #24]
  75 002e 02F02002 		and	r2, r2, #32
  76 0032 0192     		str	r2, [sp, #4]
  77              		.loc 1 1629 3 view .LVU13
  78 0034 019A     		ldr	r2, [sp, #4]
  79              	.LBE17:
  80              		.loc 1 1629 3 view .LVU14
1630:Src/main.c    ****   __HAL_RCC_GPIOA_CLK_ENABLE();
  81              		.loc 1 1630 3 view .LVU15
ARM GAS  C:\Users\Vento\AppData\Local\Temp\ccMWL8p6.s 			page 31


  82              	.LBB18:
  83              		.loc 1 1630 3 view .LVU16
  84              		.loc 1 1630 3 view .LVU17
  85 0036 9A69     		ldr	r2, [r3, #24]
  86 0038 42F00402 		orr	r2, r2, #4
  87 003c 9A61     		str	r2, [r3, #24]
  88              		.loc 1 1630 3 view .LVU18
  89 003e 9A69     		ldr	r2, [r3, #24]
  90 0040 02F00402 		and	r2, r2, #4
  91 0044 0292     		str	r2, [sp, #8]
  92              		.loc 1 1630 3 view .LVU19
  93 0046 029A     		ldr	r2, [sp, #8]
  94              	.LBE18:
  95              		.loc 1 1630 3 view .LVU20
1631:Src/main.c    ****   __HAL_RCC_GPIOB_CLK_ENABLE();
  96              		.loc 1 1631 3 view .LVU21
  97              	.LBB19:
  98              		.loc 1 1631 3 view .LVU22
  99              		.loc 1 1631 3 view .LVU23
 100 0048 9A69     		ldr	r2, [r3, #24]
 101 004a 42F00802 		orr	r2, r2, #8
 102 004e 9A61     		str	r2, [r3, #24]
 103              		.loc 1 1631 3 view .LVU24
 104 0050 9B69     		ldr	r3, [r3, #24]
 105 0052 03F00803 		and	r3, r3, #8
 106 0056 0393     		str	r3, [sp, #12]
 107              		.loc 1 1631 3 view .LVU25
 108 0058 039B     		ldr	r3, [sp, #12]
 109              	.LBE19:
 110              		.loc 1 1631 3 view .LVU26
1632:Src/main.c    **** 
1633:Src/main.c    ****   /*Configure GPIO pin Output Level */
1634:Src/main.c    ****   HAL_GPIO_WritePin(GPIOC, SIM_PWON_Pin|SIM_RST_Pin|CTR_SIM2_Pin|CTR_PWETH_Pin
 111              		.loc 1 1634 3 view .LVU27
 112 005a 384F     		ldr	r7, .L3+4
 113 005c 2246     		mov	r2, r4
 114 005e 46F28121 		movw	r1, #25217
 115 0062 3846     		mov	r0, r7
 116 0064 FFF7FEFF 		bl	HAL_GPIO_WritePin
 117              	.LVL0:
1635:Src/main.c    ****                           |LED1_Pin, GPIO_PIN_RESET);
1636:Src/main.c    **** 
1637:Src/main.c    ****   /*Configure GPIO pin Output Level */
1638:Src/main.c    ****   HAL_GPIO_WritePin(GPIOC, CTR_SIM1_Pin|WP_FLH_Pin|RST_FLH_Pin, GPIO_PIN_SET);
 118              		.loc 1 1638 3 view .LVU28
 119 0068 0122     		movs	r2, #1
 120 006a 48F23001 		movw	r1, #32816
 121 006e 3846     		mov	r0, r7
 122 0070 FFF7FEFF 		bl	HAL_GPIO_WritePin
 123              	.LVL1:
1639:Src/main.c    **** 
1640:Src/main.c    ****   /*Configure GPIO pin Output Level */
1641:Src/main.c    ****   HAL_GPIO_WritePin(GPIOA, FLASH_CS_Pin|DE_Pin|OUT2_Pin, GPIO_PIN_RESET);
 124              		.loc 1 1641 3 view .LVU29
 125 0074 DFF8C880 		ldr	r8, .L3+8
 126 0078 2246     		mov	r2, r4
 127 007a 48F21011 		movw	r1, #33040
ARM GAS  C:\Users\Vento\AppData\Local\Temp\ccMWL8p6.s 			page 32


 128 007e 4046     		mov	r0, r8
 129 0080 FFF7FEFF 		bl	HAL_GPIO_WritePin
 130              	.LVL2:
1642:Src/main.c    **** 
1643:Src/main.c    ****   /*Configure GPIO pin Output Level */
1644:Src/main.c    ****   HAL_GPIO_WritePin(GPIOB, LED2_Pin|GPIO_PIN_12|GPIO_PIN_3|CTR_PW4G_Pin, GPIO_PIN_RESET);
 131              		.loc 1 1644 3 view .LVU30
 132 0084 2F4D     		ldr	r5, .L3+12
 133 0086 2246     		mov	r2, r4
 134 0088 41F21C01 		movw	r1, #4124
 135 008c 2846     		mov	r0, r5
 136 008e FFF7FEFF 		bl	HAL_GPIO_WritePin
 137              	.LVL3:
1645:Src/main.c    **** 
1646:Src/main.c    ****   /*Configure GPIO pin Output Level */
1647:Src/main.c    ****   HAL_GPIO_WritePin(CTR_GND4G_GPIO_Port, CTR_GND4G_Pin, GPIO_PIN_SET);
 138              		.loc 1 1647 3 view .LVU31
 139 0092 0122     		movs	r2, #1
 140 0094 2021     		movs	r1, #32
 141 0096 2846     		mov	r0, r5
 142 0098 FFF7FEFF 		bl	HAL_GPIO_WritePin
 143              	.LVL4:
1648:Src/main.c    **** 
1649:Src/main.c    ****   /*Configure GPIO pins : SIM_PWON_Pin SIM_RST_Pin CTR_SIM1_Pin CTR_SIM2_Pin
1650:Src/main.c    ****                            WP_FLH_Pin RST_FLH_Pin CTR_PWETH_Pin LED1_Pin */
1651:Src/main.c    ****   GPIO_InitStruct.Pin = SIM_PWON_Pin|SIM_RST_Pin|CTR_SIM1_Pin|CTR_SIM2_Pin
 144              		.loc 1 1651 3 view .LVU32
 145              		.loc 1 1651 23 is_stmt 0 view .LVU33
 146 009c 4EF2B123 		movw	r3, #58033
 147 00a0 0493     		str	r3, [sp, #16]
1652:Src/main.c    ****                           |WP_FLH_Pin|RST_FLH_Pin|CTR_PWETH_Pin|LED1_Pin;
1653:Src/main.c    ****   GPIO_InitStruct.Mode = GPIO_MODE_OUTPUT_PP;
 148              		.loc 1 1653 3 is_stmt 1 view .LVU34
 149              		.loc 1 1653 24 is_stmt 0 view .LVU35
 150 00a2 0126     		movs	r6, #1
 151 00a4 0596     		str	r6, [sp, #20]
1654:Src/main.c    ****   GPIO_InitStruct.Pull = GPIO_NOPULL;
 152              		.loc 1 1654 3 is_stmt 1 view .LVU36
 153              		.loc 1 1654 24 is_stmt 0 view .LVU37
 154 00a6 0694     		str	r4, [sp, #24]
1655:Src/main.c    ****   GPIO_InitStruct.Speed = GPIO_SPEED_FREQ_LOW;
 155              		.loc 1 1655 3 is_stmt 1 view .LVU38
 156              		.loc 1 1655 25 is_stmt 0 view .LVU39
 157 00a8 4FF00209 		mov	r9, #2
 158 00ac CDF81C90 		str	r9, [sp, #28]
1656:Src/main.c    ****   HAL_GPIO_Init(GPIOC, &GPIO_InitStruct);
 159              		.loc 1 1656 3 is_stmt 1 view .LVU40
 160 00b0 04A9     		add	r1, sp, #16
 161 00b2 3846     		mov	r0, r7
 162 00b4 FFF7FEFF 		bl	HAL_GPIO_Init
 163              	.LVL5:
1657:Src/main.c    **** 
1658:Src/main.c    ****   /*Configure GPIO pins : FLASH_CS_Pin DE_Pin OUT2_Pin */
1659:Src/main.c    ****   GPIO_InitStruct.Pin = FLASH_CS_Pin|DE_Pin|OUT2_Pin;
 164              		.loc 1 1659 3 view .LVU41
 165              		.loc 1 1659 23 is_stmt 0 view .LVU42
 166 00b8 48F21013 		movw	r3, #33040
ARM GAS  C:\Users\Vento\AppData\Local\Temp\ccMWL8p6.s 			page 33


 167 00bc 0493     		str	r3, [sp, #16]
1660:Src/main.c    ****   GPIO_InitStruct.Mode = GPIO_MODE_OUTPUT_PP;
 168              		.loc 1 1660 3 is_stmt 1 view .LVU43
 169              		.loc 1 1660 24 is_stmt 0 view .LVU44
 170 00be 0596     		str	r6, [sp, #20]
1661:Src/main.c    ****   GPIO_InitStruct.Pull = GPIO_NOPULL;
 171              		.loc 1 1661 3 is_stmt 1 view .LVU45
 172              		.loc 1 1661 24 is_stmt 0 view .LVU46
 173 00c0 0694     		str	r4, [sp, #24]
1662:Src/main.c    ****   GPIO_InitStruct.Speed = GPIO_SPEED_FREQ_LOW;
 174              		.loc 1 1662 3 is_stmt 1 view .LVU47
 175              		.loc 1 1662 25 is_stmt 0 view .LVU48
 176 00c2 CDF81C90 		str	r9, [sp, #28]
1663:Src/main.c    ****   HAL_GPIO_Init(GPIOA, &GPIO_InitStruct);
 177              		.loc 1 1663 3 is_stmt 1 view .LVU49
 178 00c6 04A9     		add	r1, sp, #16
 179 00c8 4046     		mov	r0, r8
 180 00ca FFF7FEFF 		bl	HAL_GPIO_Init
 181              	.LVL6:
1664:Src/main.c    **** 
1665:Src/main.c    ****   /*Configure GPIO pins : LED2_Pin PB12 PB3 CTR_PW4G_Pin
1666:Src/main.c    ****                            CTR_GND4G_Pin */
1667:Src/main.c    ****   GPIO_InitStruct.Pin = LED2_Pin|GPIO_PIN_12|GPIO_PIN_3|CTR_PW4G_Pin
 182              		.loc 1 1667 3 view .LVU50
 183              		.loc 1 1667 23 is_stmt 0 view .LVU51
 184 00ce 41F23C03 		movw	r3, #4156
 185 00d2 0493     		str	r3, [sp, #16]
1668:Src/main.c    ****                           |CTR_GND4G_Pin;
1669:Src/main.c    ****   GPIO_InitStruct.Mode = GPIO_MODE_OUTPUT_PP;
 186              		.loc 1 1669 3 is_stmt 1 view .LVU52
 187              		.loc 1 1669 24 is_stmt 0 view .LVU53
 188 00d4 0596     		str	r6, [sp, #20]
1670:Src/main.c    ****   GPIO_InitStruct.Pull = GPIO_NOPULL;
 189              		.loc 1 1670 3 is_stmt 1 view .LVU54
 190              		.loc 1 1670 24 is_stmt 0 view .LVU55
 191 00d6 0694     		str	r4, [sp, #24]
1671:Src/main.c    ****   GPIO_InitStruct.Speed = GPIO_SPEED_FREQ_LOW;
 192              		.loc 1 1671 3 is_stmt 1 view .LVU56
 193              		.loc 1 1671 25 is_stmt 0 view .LVU57
 194 00d8 CDF81C90 		str	r9, [sp, #28]
1672:Src/main.c    ****   HAL_GPIO_Init(GPIOB, &GPIO_InitStruct);
 195              		.loc 1 1672 3 is_stmt 1 view .LVU58
 196 00dc 04A9     		add	r1, sp, #16
 197 00de 2846     		mov	r0, r5
 198 00e0 FFF7FEFF 		bl	HAL_GPIO_Init
 199              	.LVL7:
1673:Src/main.c    **** 
1674:Src/main.c    ****   /*Configure GPIO pin : INT_ETH_Pin */
1675:Src/main.c    ****   GPIO_InitStruct.Pin = INT_ETH_Pin;
 200              		.loc 1 1675 3 view .LVU59
 201              		.loc 1 1675 23 is_stmt 0 view .LVU60
 202 00e4 4023     		movs	r3, #64
 203 00e6 0493     		str	r3, [sp, #16]
1676:Src/main.c    ****   GPIO_InitStruct.Mode = GPIO_MODE_IT_FALLING;
 204              		.loc 1 1676 3 is_stmt 1 view .LVU61
 205              		.loc 1 1676 24 is_stmt 0 view .LVU62
 206 00e8 DFF85C90 		ldr	r9, .L3+16
ARM GAS  C:\Users\Vento\AppData\Local\Temp\ccMWL8p6.s 			page 34


 207 00ec CDF81490 		str	r9, [sp, #20]
1677:Src/main.c    ****   GPIO_InitStruct.Pull = GPIO_NOPULL;
 208              		.loc 1 1677 3 is_stmt 1 view .LVU63
 209              		.loc 1 1677 24 is_stmt 0 view .LVU64
 210 00f0 0694     		str	r4, [sp, #24]
1678:Src/main.c    ****   HAL_GPIO_Init(INT_ETH_GPIO_Port, &GPIO_InitStruct);
 211              		.loc 1 1678 3 is_stmt 1 view .LVU65
 212 00f2 04A9     		add	r1, sp, #16
 213 00f4 3846     		mov	r0, r7
 214 00f6 FFF7FEFF 		bl	HAL_GPIO_Init
 215              	.LVL8:
1679:Src/main.c    **** 
1680:Src/main.c    ****   /*Configure GPIO pins : IN2_Pin IN1_Pin */
1681:Src/main.c    ****   GPIO_InitStruct.Pin = IN2_Pin|IN1_Pin;
 216              		.loc 1 1681 3 view .LVU66
 217              		.loc 1 1681 23 is_stmt 0 view .LVU67
 218 00fa 4FF4C053 		mov	r3, #6144
 219 00fe 0493     		str	r3, [sp, #16]
1682:Src/main.c    ****   GPIO_InitStruct.Mode = GPIO_MODE_INPUT;
 220              		.loc 1 1682 3 is_stmt 1 view .LVU68
 221              		.loc 1 1682 24 is_stmt 0 view .LVU69
 222 0100 0594     		str	r4, [sp, #20]
1683:Src/main.c    ****   GPIO_InitStruct.Pull = GPIO_PULLUP;
 223              		.loc 1 1683 3 is_stmt 1 view .LVU70
 224              		.loc 1 1683 24 is_stmt 0 view .LVU71
 225 0102 0696     		str	r6, [sp, #24]
1684:Src/main.c    ****   HAL_GPIO_Init(GPIOA, &GPIO_InitStruct);
 226              		.loc 1 1684 3 is_stmt 1 view .LVU72
 227 0104 04A9     		add	r1, sp, #16
 228 0106 4046     		mov	r0, r8
 229 0108 FFF7FEFF 		bl	HAL_GPIO_Init
 230              	.LVL9:
1685:Src/main.c    **** 
1686:Src/main.c    ****   /*Configure GPIO pin : NET_Pin */
1687:Src/main.c    ****   GPIO_InitStruct.Pin = NET_Pin;
 231              		.loc 1 1687 3 view .LVU73
 232              		.loc 1 1687 23 is_stmt 0 view .LVU74
 233 010c 4FF48073 		mov	r3, #256
 234 0110 0493     		str	r3, [sp, #16]
1688:Src/main.c    ****   GPIO_InitStruct.Mode = GPIO_MODE_IT_FALLING;
 235              		.loc 1 1688 3 is_stmt 1 view .LVU75
 236              		.loc 1 1688 24 is_stmt 0 view .LVU76
 237 0112 CDF81490 		str	r9, [sp, #20]
1689:Src/main.c    ****   GPIO_InitStruct.Pull = GPIO_NOPULL;
 238              		.loc 1 1689 3 is_stmt 1 view .LVU77
 239              		.loc 1 1689 24 is_stmt 0 view .LVU78
 240 0116 0694     		str	r4, [sp, #24]
1690:Src/main.c    ****   HAL_GPIO_Init(NET_GPIO_Port, &GPIO_InitStruct);
 241              		.loc 1 1690 3 is_stmt 1 view .LVU79
 242 0118 04A9     		add	r1, sp, #16
 243 011a 2846     		mov	r0, r5
 244 011c FFF7FEFF 		bl	HAL_GPIO_Init
 245              	.LVL10:
1691:Src/main.c    **** 
1692:Src/main.c    ****   /* EXTI interrupt init*/
1693:Src/main.c    ****   HAL_NVIC_SetPriority(EXTI9_5_IRQn, 0, 0);
 246              		.loc 1 1693 3 view .LVU80
ARM GAS  C:\Users\Vento\AppData\Local\Temp\ccMWL8p6.s 			page 35


 247 0120 2246     		mov	r2, r4
 248 0122 2146     		mov	r1, r4
 249 0124 1720     		movs	r0, #23
 250 0126 FFF7FEFF 		bl	HAL_NVIC_SetPriority
 251              	.LVL11:
1694:Src/main.c    ****   HAL_NVIC_EnableIRQ(EXTI9_5_IRQn);
 252              		.loc 1 1694 3 view .LVU81
 253 012a 1720     		movs	r0, #23
 254 012c FFF7FEFF 		bl	HAL_NVIC_EnableIRQ
 255              	.LVL12:
1695:Src/main.c    **** 
1696:Src/main.c    **** }
 256              		.loc 1 1696 1 is_stmt 0 view .LVU82
 257 0130 09B0     		add	sp, sp, #36
 258              	.LCFI2:
 259              		.cfi_def_cfa_offset 28
 260              		@ sp needed
 261 0132 BDE8F083 		pop	{r4, r5, r6, r7, r8, r9, pc}
 262              	.L4:
 263 0136 00BF     		.align	2
 264              	.L3:
 265 0138 00100240 		.word	1073876992
 266 013c 00100140 		.word	1073811456
 267 0140 00080140 		.word	1073809408
 268 0144 000C0140 		.word	1073810432
 269 0148 00002110 		.word	270598144
 270              		.cfi_endproc
 271              	.LFE96:
 273              		.section	.text.BCD2DEC,"ax",%progbits
 274              		.align	1
 275              		.global	BCD2DEC
 276              		.syntax unified
 277              		.thumb
 278              		.thumb_func
 279              		.fpu softvfp
 281              	BCD2DEC:
 282              	.LVL13:
 283              	.LFB68:
 119:Src/main.c    **** 	return (data>>4)*10 + (data&0x0F);
 284              		.loc 1 119 1 is_stmt 1 view -0
 285              		.cfi_startproc
 286              		@ args = 0, pretend = 0, frame = 0
 287              		@ frame_needed = 0, uses_anonymous_args = 0
 288              		@ link register save eliminated.
 120:Src/main.c    **** }
 289              		.loc 1 120 2 view .LVU84
 120:Src/main.c    **** }
 290              		.loc 1 120 29 is_stmt 0 view .LVU85
 291 0000 00F00F03 		and	r3, r0, #15
 120:Src/main.c    **** }
 292              		.loc 1 120 22 view .LVU86
 293 0004 0009     		lsrs	r0, r0, #4
 294              	.LVL14:
 120:Src/main.c    **** }
 295              		.loc 1 120 22 view .LVU87
 296 0006 00EB8000 		add	r0, r0, r0, lsl #2
 297 000a 03EB4000 		add	r0, r3, r0, lsl #1
ARM GAS  C:\Users\Vento\AppData\Local\Temp\ccMWL8p6.s 			page 36


 121:Src/main.c    **** uint8_t DEC2BCD(uint8_t data)
 298              		.loc 1 121 1 view .LVU88
 299 000e C0B2     		uxtb	r0, r0
 300 0010 7047     		bx	lr
 301              		.cfi_endproc
 302              	.LFE68:
 304              		.section	.text.DEC2BCD,"ax",%progbits
 305              		.align	1
 306              		.global	DEC2BCD
 307              		.syntax unified
 308              		.thumb
 309              		.thumb_func
 310              		.fpu softvfp
 312              	DEC2BCD:
 313              	.LVL15:
 314              	.LFB69:
 123:Src/main.c    **** 	return (data/10)<<4 | (data%10);
 315              		.loc 1 123 1 is_stmt 1 view -0
 316              		.cfi_startproc
 317              		@ args = 0, pretend = 0, frame = 0
 318              		@ frame_needed = 0, uses_anonymous_args = 0
 319              		@ link register save eliminated.
 124:Src/main.c    **** }
 320              		.loc 1 124 2 view .LVU90
 124:Src/main.c    **** }
 321              		.loc 1 124 14 is_stmt 0 view .LVU91
 322 0000 064B     		ldr	r3, .L7
 323 0002 A3FB0023 		umull	r2, r3, r3, r0
 324 0006 DA08     		lsrs	r2, r3, #3
 325 0008 1346     		mov	r3, r2
 124:Src/main.c    **** }
 326              		.loc 1 124 22 view .LVU92
 327 000a 02EB8202 		add	r2, r2, r2, lsl #2
 328 000e A0EB4200 		sub	r0, r0, r2, lsl #1
 329              	.LVL16:
 124:Src/main.c    **** }
 330              		.loc 1 124 22 view .LVU93
 331 0012 40EA0310 		orr	r0, r0, r3, lsl #4
 125:Src/main.c    **** 
 332              		.loc 1 125 1 view .LVU94
 333 0016 C0B2     		uxtb	r0, r0
 334 0018 7047     		bx	lr
 335              	.L8:
 336 001a 00BF     		.align	2
 337              	.L7:
 338 001c CDCCCCCC 		.word	-858993459
 339              		.cfi_endproc
 340              	.LFE69:
 342              		.section	.text.HAL_GPIO_EXTI_Callback,"ax",%progbits
 343              		.align	1
 344              		.global	HAL_GPIO_EXTI_Callback
 345              		.syntax unified
 346              		.thumb
 347              		.thumb_func
 348              		.fpu softvfp
 350              	HAL_GPIO_EXTI_Callback:
 351              	.LVL17:
ARM GAS  C:\Users\Vento\AppData\Local\Temp\ccMWL8p6.s 			page 37


 352              	.LFB70:
 168:Src/main.c    **** 	if(GPIO_Pin == NET_Pin)
 353              		.loc 1 168 1 is_stmt 1 view -0
 354              		.cfi_startproc
 355              		@ args = 0, pretend = 0, frame = 0
 356              		@ frame_needed = 0, uses_anonymous_args = 0
 169:Src/main.c    ****   {
 357              		.loc 1 169 2 view .LVU96
 169:Src/main.c    ****   {
 358              		.loc 1 169 4 is_stmt 0 view .LVU97
 359 0000 B0F5807F 		cmp	r0, #256
 360 0004 00D0     		beq	.L15
 361 0006 7047     		bx	lr
 362              	.L15:
 168:Src/main.c    **** 	if(GPIO_Pin == NET_Pin)
 363              		.loc 1 168 1 view .LVU98
 364 0008 08B5     		push	{r3, lr}
 365              	.LCFI3:
 366              		.cfi_def_cfa_offset 8
 367              		.cfi_offset 3, -8
 368              		.cfi_offset 14, -4
 172:Src/main.c    **** 	}
 369              		.loc 1 172 3 is_stmt 1 view .LVU99
 172:Src/main.c    **** 	}
 370              		.loc 1 172 14 is_stmt 0 view .LVU100
 371 000a FFF7FEFF 		bl	HAL_GetTick
 372              	.LVL18:
 172:Src/main.c    **** 	}
 373              		.loc 1 172 12 view .LVU101
 374 000e 014B     		ldr	r3, .L16
 375 0010 1860     		str	r0, [r3]
 174:Src/main.c    **** void HAL_TIM_PeriodElapsedCallback(TIM_HandleTypeDef *htim)
 376              		.loc 1 174 1 view .LVU102
 377 0012 08BD     		pop	{r3, pc}
 378              	.L17:
 379              		.align	2
 380              	.L16:
 381 0014 00000000 		.word	.LANCHOR0
 382              		.cfi_endproc
 383              	.LFE70:
 385              		.section	.text.HAL_TIM_PeriodElapsedCallback,"ax",%progbits
 386              		.align	1
 387              		.global	HAL_TIM_PeriodElapsedCallback
 388              		.syntax unified
 389              		.thumb
 390              		.thumb_func
 391              		.fpu softvfp
 393              	HAL_TIM_PeriodElapsedCallback:
 394              	.LVL19:
 395              	.LFB71:
 176:Src/main.c    **** 	if(htim->Instance == TIM3)
 396              		.loc 1 176 1 is_stmt 1 view -0
 397              		.cfi_startproc
 398              		@ args = 0, pretend = 0, frame = 0
 399              		@ frame_needed = 0, uses_anonymous_args = 0
 176:Src/main.c    **** 	if(htim->Instance == TIM3)
 400              		.loc 1 176 1 is_stmt 0 view .LVU104
ARM GAS  C:\Users\Vento\AppData\Local\Temp\ccMWL8p6.s 			page 38


 401 0000 38B5     		push	{r3, r4, r5, lr}
 402              	.LCFI4:
 403              		.cfi_def_cfa_offset 16
 404              		.cfi_offset 3, -16
 405              		.cfi_offset 4, -12
 406              		.cfi_offset 5, -8
 407              		.cfi_offset 14, -4
 408 0002 0446     		mov	r4, r0
 177:Src/main.c    **** 	{
 409              		.loc 1 177 2 is_stmt 1 view .LVU105
 177:Src/main.c    **** 	{
 410              		.loc 1 177 9 is_stmt 0 view .LVU106
 411 0004 0268     		ldr	r2, [r0]
 177:Src/main.c    **** 	{
 412              		.loc 1 177 4 view .LVU107
 413 0006 114B     		ldr	r3, .L24
 414 0008 9A42     		cmp	r2, r3
 415 000a 04D0     		beq	.L22
 416              	.LVL20:
 417              	.L19:
 192:Src/main.c    ****   {
 418              		.loc 1 192 3 is_stmt 1 view .LVU108
 192:Src/main.c    ****   {
 419              		.loc 1 192 10 is_stmt 0 view .LVU109
 420 000c 2368     		ldr	r3, [r4]
 192:Src/main.c    ****   {
 421              		.loc 1 192 5 view .LVU110
 422 000e B3F1804F 		cmp	r3, #1073741824
 423 0012 0ED0     		beq	.L23
 424              	.L18:
 205:Src/main.c    **** void HAL_UART_RxCpltCallback(UART_HandleTypeDef *huart)
 425              		.loc 1 205 1 view .LVU111
 426 0014 38BD     		pop	{r3, r4, r5, pc}
 427              	.LVL21:
 428              	.L22:
 179:Src/main.c    **** //		 printf("\n\r");
 429              		.loc 1 179 3 is_stmt 1 view .LVU112
 179:Src/main.c    **** //		 printf("\n\r");
 430              		.loc 1 179 12 is_stmt 0 view .LVU113
 431 0016 0E4D     		ldr	r5, .L24+4
 432 0018 2A78     		ldrb	r2, [r5]	@ zero_extendqisi2
 433 001a 0E4B     		ldr	r3, .L24+8
 434 001c 1A70     		strb	r2, [r3]
 185:Src/main.c    **** 		 //for(uint8_t i=0; i<Index_MB; i++)  Data_MB[i] = DatabufferRs485[i];
 435              		.loc 1 185 3 is_stmt 1 view .LVU114
 436 001e 0421     		movs	r1, #4
 437 0020 0D48     		ldr	r0, .L24+12
 438              	.LVL22:
 185:Src/main.c    **** 		 //for(uint8_t i=0; i<Index_MB; i++)  Data_MB[i] = DatabufferRs485[i];
 439              		.loc 1 185 3 is_stmt 0 view .LVU115
 440 0022 FFF7FEFF 		bl	HAL_GPIO_TogglePin
 441              	.LVL23:
 189:Src/main.c    **** 		HAL_TIM_Base_Stop_IT(&htim3);
 442              		.loc 1 189 3 is_stmt 1 view .LVU116
 189:Src/main.c    **** 		HAL_TIM_Base_Stop_IT(&htim3);
 443              		.loc 1 189 14 is_stmt 0 view .LVU117
 444 0026 0023     		movs	r3, #0
ARM GAS  C:\Users\Vento\AppData\Local\Temp\ccMWL8p6.s 			page 39


 445 0028 2B70     		strb	r3, [r5]
 190:Src/main.c    ****   }
 446              		.loc 1 190 3 is_stmt 1 view .LVU118
 447 002a 0C48     		ldr	r0, .L24+16
 448 002c FFF7FEFF 		bl	HAL_TIM_Base_Stop_IT
 449              	.LVL24:
 450 0030 ECE7     		b	.L19
 451              	.L23:
 194:Src/main.c    ****     // if(read_ms) printf("%s", Sim_Data);
 452              		.loc 1 194 3 view .LVU119
 194:Src/main.c    ****     // if(read_ms) printf("%s", Sim_Data);
 453              		.loc 1 194 13 is_stmt 0 view .LVU120
 454 0032 0B4A     		ldr	r2, .L24+20
 455 0034 1188     		ldrh	r1, [r2]
 456 0036 0B4B     		ldr	r3, .L24+24
 457 0038 1980     		strh	r1, [r3]	@ movhi
 196:Src/main.c    ****     rx2_done = 0;
 458              		.loc 1 196 5 is_stmt 1 view .LVU121
 196:Src/main.c    ****     rx2_done = 0;
 459              		.loc 1 196 15 is_stmt 0 view .LVU122
 460 003a 0023     		movs	r3, #0
 461 003c 1380     		strh	r3, [r2]	@ movhi
 197:Src/main.c    ****     // read_ms = 1;
 462              		.loc 1 197 5 is_stmt 1 view .LVU123
 197:Src/main.c    ****     // read_ms = 1;
 463              		.loc 1 197 14 is_stmt 0 view .LVU124
 464 003e 0A4A     		ldr	r2, .L24+28
 465 0040 1370     		strb	r3, [r2]
 199:Src/main.c    ****   }
 466              		.loc 1 199 5 is_stmt 1 view .LVU125
 467 0042 0A48     		ldr	r0, .L24+32
 468 0044 FFF7FEFF 		bl	HAL_TIM_Base_Stop_IT
 469              	.LVL25:
 201:Src/main.c    ****   {
 470              		.loc 1 201 3 view .LVU126
 204:Src/main.c    **** }
 471              		.loc 1 204 3 view .LVU127
 205:Src/main.c    **** void HAL_UART_RxCpltCallback(UART_HandleTypeDef *huart)
 472              		.loc 1 205 1 is_stmt 0 view .LVU128
 473 0048 E4E7     		b	.L18
 474              	.L25:
 475 004a 00BF     		.align	2
 476              	.L24:
 477 004c 00040040 		.word	1073742848
 478 0050 00000000 		.word	.LANCHOR2
 479 0054 00000000 		.word	.LANCHOR1
 480 0058 000C0140 		.word	1073810432
 481 005c 00000000 		.word	.LANCHOR3
 482 0060 00000000 		.word	.LANCHOR5
 483 0064 00000000 		.word	.LANCHOR4
 484 0068 00000000 		.word	.LANCHOR6
 485 006c 00000000 		.word	.LANCHOR7
 486              		.cfi_endproc
 487              	.LFE71:
 489              		.section	.rodata.HAL_UART_RxCpltCallback.str1.4,"aMS",%progbits,1
 490              		.align	2
 491              	.LC0:
ARM GAS  C:\Users\Vento\AppData\Local\Temp\ccMWL8p6.s 			page 40


 492 0000 4F4B00   		.ascii	"OK\000"
 493              		.section	.text.HAL_UART_RxCpltCallback,"ax",%progbits
 494              		.align	1
 495              		.global	HAL_UART_RxCpltCallback
 496              		.syntax unified
 497              		.thumb
 498              		.thumb_func
 499              		.fpu softvfp
 501              	HAL_UART_RxCpltCallback:
 502              	.LVL26:
 503              	.LFB72:
 207:Src/main.c    **** 	if(huart->Instance == USART3)
 504              		.loc 1 207 1 is_stmt 1 view -0
 505              		.cfi_startproc
 506              		@ args = 0, pretend = 0, frame = 0
 507              		@ frame_needed = 0, uses_anonymous_args = 0
 207:Src/main.c    **** 	if(huart->Instance == USART3)
 508              		.loc 1 207 1 is_stmt 0 view .LVU130
 509 0000 10B5     		push	{r4, lr}
 510              	.LCFI5:
 511              		.cfi_def_cfa_offset 8
 512              		.cfi_offset 4, -8
 513              		.cfi_offset 14, -4
 514 0002 0446     		mov	r4, r0
 208:Src/main.c    ****   {
 515              		.loc 1 208 2 is_stmt 1 view .LVU131
 208:Src/main.c    ****   {
 516              		.loc 1 208 10 is_stmt 0 view .LVU132
 517 0004 0368     		ldr	r3, [r0]
 208:Src/main.c    ****   {
 518              		.loc 1 208 4 view .LVU133
 519 0006 4A4A     		ldr	r2, .L46
 520 0008 9342     		cmp	r3, r2
 521 000a 0BD0     		beq	.L38
 522              	.L27:
 213:Src/main.c    ****   {
 523              		.loc 1 213 2 is_stmt 1 view .LVU134
 213:Src/main.c    ****   {
 524              		.loc 1 213 4 is_stmt 0 view .LVU135
 525 000c 494A     		ldr	r2, .L46+4
 526 000e 9342     		cmp	r3, r2
 527 0010 19D0     		beq	.L39
 528              	.LVL27:
 529              	.L29:
 222:Src/main.c    ****   {
 530              		.loc 1 222 2 is_stmt 1 view .LVU136
 222:Src/main.c    ****   {
 531              		.loc 1 222 10 is_stmt 0 view .LVU137
 532 0012 2268     		ldr	r2, [r4]
 222:Src/main.c    ****   {
 533              		.loc 1 222 4 view .LVU138
 534 0014 484B     		ldr	r3, .L46+8
 535 0016 9A42     		cmp	r2, r3
 536 0018 32D0     		beq	.L40
 537              	.L31:
 231:Src/main.c    ****   {
 538              		.loc 1 231 3 is_stmt 1 view .LVU139
ARM GAS  C:\Users\Vento\AppData\Local\Temp\ccMWL8p6.s 			page 41


 231:Src/main.c    ****   {
 539              		.loc 1 231 11 is_stmt 0 view .LVU140
 540 001a 2268     		ldr	r2, [r4]
 231:Src/main.c    ****   {
 541              		.loc 1 231 5 view .LVU141
 542 001c 474B     		ldr	r3, .L46+12
 543 001e 9A42     		cmp	r2, r3
 544 0020 50D0     		beq	.L41
 545              	.LVL28:
 546              	.L26:
 257:Src/main.c    **** 
 547              		.loc 1 257 1 view .LVU142
 548 0022 10BD     		pop	{r4, pc}
 549              	.LVL29:
 550              	.L38:
 210:Src/main.c    **** 		//HAL_UART_Receive_IT(&huart3, &rx3_data, 1);
 551              		.loc 1 210 3 is_stmt 1 view .LVU143
 210:Src/main.c    **** 		//HAL_UART_Receive_IT(&huart3, &rx3_data, 1);
 552              		.loc 1 210 15 is_stmt 0 view .LVU144
 553 0024 464A     		ldr	r2, .L46+16
 554 0026 1278     		ldrb	r2, [r2]	@ zero_extendqisi2
 210:Src/main.c    **** 		//HAL_UART_Receive_IT(&huart3, &rx3_data, 1);
 555              		.loc 1 210 5 view .LVU145
 556 0028 5E2A     		cmp	r2, #94
 557 002a EFD1     		bne	.L27
 210:Src/main.c    **** 		//HAL_UART_Receive_IT(&huart3, &rx3_data, 1);
 558              		.loc 1 210 23 is_stmt 1 view .LVU146
 559              	.LBB26:
 560              	.LBI26:
 561              		.file 2 "Drivers/CMSIS/Include/core_cm3.h"
   1:Drivers/CMSIS/Include/core_cm3.h **** /**************************************************************************//**
   2:Drivers/CMSIS/Include/core_cm3.h ****  * @file     core_cm3.h
   3:Drivers/CMSIS/Include/core_cm3.h ****  * @brief    CMSIS Cortex-M3 Core Peripheral Access Layer Header File
   4:Drivers/CMSIS/Include/core_cm3.h ****  * @version  V5.0.8
   5:Drivers/CMSIS/Include/core_cm3.h ****  * @date     04. June 2018
   6:Drivers/CMSIS/Include/core_cm3.h ****  ******************************************************************************/
   7:Drivers/CMSIS/Include/core_cm3.h **** /*
   8:Drivers/CMSIS/Include/core_cm3.h ****  * Copyright (c) 2009-2018 Arm Limited. All rights reserved.
   9:Drivers/CMSIS/Include/core_cm3.h ****  *
  10:Drivers/CMSIS/Include/core_cm3.h ****  * SPDX-License-Identifier: Apache-2.0
  11:Drivers/CMSIS/Include/core_cm3.h ****  *
  12:Drivers/CMSIS/Include/core_cm3.h ****  * Licensed under the Apache License, Version 2.0 (the License); you may
  13:Drivers/CMSIS/Include/core_cm3.h ****  * not use this file except in compliance with the License.
  14:Drivers/CMSIS/Include/core_cm3.h ****  * You may obtain a copy of the License at
  15:Drivers/CMSIS/Include/core_cm3.h ****  *
  16:Drivers/CMSIS/Include/core_cm3.h ****  * www.apache.org/licenses/LICENSE-2.0
  17:Drivers/CMSIS/Include/core_cm3.h ****  *
  18:Drivers/CMSIS/Include/core_cm3.h ****  * Unless required by applicable law or agreed to in writing, software
  19:Drivers/CMSIS/Include/core_cm3.h ****  * distributed under the License is distributed on an AS IS BASIS, WITHOUT
  20:Drivers/CMSIS/Include/core_cm3.h ****  * WARRANTIES OR CONDITIONS OF ANY KIND, either express or implied.
  21:Drivers/CMSIS/Include/core_cm3.h ****  * See the License for the specific language governing permissions and
  22:Drivers/CMSIS/Include/core_cm3.h ****  * limitations under the License.
  23:Drivers/CMSIS/Include/core_cm3.h ****  */
  24:Drivers/CMSIS/Include/core_cm3.h **** 
  25:Drivers/CMSIS/Include/core_cm3.h **** #if   defined ( __ICCARM__ )
  26:Drivers/CMSIS/Include/core_cm3.h ****   #pragma system_include         /* treat file as system include file for MISRA check */
  27:Drivers/CMSIS/Include/core_cm3.h **** #elif defined (__clang__)
ARM GAS  C:\Users\Vento\AppData\Local\Temp\ccMWL8p6.s 			page 42


  28:Drivers/CMSIS/Include/core_cm3.h ****   #pragma clang system_header   /* treat file as system include file */
  29:Drivers/CMSIS/Include/core_cm3.h **** #endif
  30:Drivers/CMSIS/Include/core_cm3.h **** 
  31:Drivers/CMSIS/Include/core_cm3.h **** #ifndef __CORE_CM3_H_GENERIC
  32:Drivers/CMSIS/Include/core_cm3.h **** #define __CORE_CM3_H_GENERIC
  33:Drivers/CMSIS/Include/core_cm3.h **** 
  34:Drivers/CMSIS/Include/core_cm3.h **** #include <stdint.h>
  35:Drivers/CMSIS/Include/core_cm3.h **** 
  36:Drivers/CMSIS/Include/core_cm3.h **** #ifdef __cplusplus
  37:Drivers/CMSIS/Include/core_cm3.h ****  extern "C" {
  38:Drivers/CMSIS/Include/core_cm3.h **** #endif
  39:Drivers/CMSIS/Include/core_cm3.h **** 
  40:Drivers/CMSIS/Include/core_cm3.h **** /**
  41:Drivers/CMSIS/Include/core_cm3.h ****   \page CMSIS_MISRA_Exceptions  MISRA-C:2004 Compliance Exceptions
  42:Drivers/CMSIS/Include/core_cm3.h ****   CMSIS violates the following MISRA-C:2004 rules:
  43:Drivers/CMSIS/Include/core_cm3.h **** 
  44:Drivers/CMSIS/Include/core_cm3.h ****    \li Required Rule 8.5, object/function definition in header file.<br>
  45:Drivers/CMSIS/Include/core_cm3.h ****      Function definitions in header files are used to allow 'inlining'.
  46:Drivers/CMSIS/Include/core_cm3.h **** 
  47:Drivers/CMSIS/Include/core_cm3.h ****    \li Required Rule 18.4, declaration of union type or object of union type: '{...}'.<br>
  48:Drivers/CMSIS/Include/core_cm3.h ****      Unions are used for effective representation of core registers.
  49:Drivers/CMSIS/Include/core_cm3.h **** 
  50:Drivers/CMSIS/Include/core_cm3.h ****    \li Advisory Rule 19.7, Function-like macro defined.<br>
  51:Drivers/CMSIS/Include/core_cm3.h ****      Function-like macros are used to allow more efficient code.
  52:Drivers/CMSIS/Include/core_cm3.h ****  */
  53:Drivers/CMSIS/Include/core_cm3.h **** 
  54:Drivers/CMSIS/Include/core_cm3.h **** 
  55:Drivers/CMSIS/Include/core_cm3.h **** /*******************************************************************************
  56:Drivers/CMSIS/Include/core_cm3.h ****  *                 CMSIS definitions
  57:Drivers/CMSIS/Include/core_cm3.h ****  ******************************************************************************/
  58:Drivers/CMSIS/Include/core_cm3.h **** /**
  59:Drivers/CMSIS/Include/core_cm3.h ****   \ingroup Cortex_M3
  60:Drivers/CMSIS/Include/core_cm3.h ****   @{
  61:Drivers/CMSIS/Include/core_cm3.h ****  */
  62:Drivers/CMSIS/Include/core_cm3.h **** 
  63:Drivers/CMSIS/Include/core_cm3.h **** #include "cmsis_version.h"
  64:Drivers/CMSIS/Include/core_cm3.h **** 
  65:Drivers/CMSIS/Include/core_cm3.h **** /*  CMSIS CM3 definitions */
  66:Drivers/CMSIS/Include/core_cm3.h **** #define __CM3_CMSIS_VERSION_MAIN  (__CM_CMSIS_VERSION_MAIN)              /*!< \deprecated [31:16] C
  67:Drivers/CMSIS/Include/core_cm3.h **** #define __CM3_CMSIS_VERSION_SUB   (__CM_CMSIS_VERSION_SUB)               /*!< \deprecated [15:0]  C
  68:Drivers/CMSIS/Include/core_cm3.h **** #define __CM3_CMSIS_VERSION       ((__CM3_CMSIS_VERSION_MAIN << 16U) | \
  69:Drivers/CMSIS/Include/core_cm3.h ****                                     __CM3_CMSIS_VERSION_SUB           )  /*!< \deprecated CMSIS HAL
  70:Drivers/CMSIS/Include/core_cm3.h **** 
  71:Drivers/CMSIS/Include/core_cm3.h **** #define __CORTEX_M                (3U)                                   /*!< Cortex-M Core */
  72:Drivers/CMSIS/Include/core_cm3.h **** 
  73:Drivers/CMSIS/Include/core_cm3.h **** /** __FPU_USED indicates whether an FPU is used or not.
  74:Drivers/CMSIS/Include/core_cm3.h ****     This core does not support an FPU at all
  75:Drivers/CMSIS/Include/core_cm3.h **** */
  76:Drivers/CMSIS/Include/core_cm3.h **** #define __FPU_USED       0U
  77:Drivers/CMSIS/Include/core_cm3.h **** 
  78:Drivers/CMSIS/Include/core_cm3.h **** #if defined ( __CC_ARM )
  79:Drivers/CMSIS/Include/core_cm3.h ****   #if defined __TARGET_FPU_VFP
  80:Drivers/CMSIS/Include/core_cm3.h ****     #error "Compiler generates FPU instructions for a device without an FPU (check __FPU_PRESENT)"
  81:Drivers/CMSIS/Include/core_cm3.h ****   #endif
  82:Drivers/CMSIS/Include/core_cm3.h **** 
  83:Drivers/CMSIS/Include/core_cm3.h **** #elif defined (__ARMCC_VERSION) && (__ARMCC_VERSION >= 6010050)
  84:Drivers/CMSIS/Include/core_cm3.h ****   #if defined __ARM_PCS_VFP
ARM GAS  C:\Users\Vento\AppData\Local\Temp\ccMWL8p6.s 			page 43


  85:Drivers/CMSIS/Include/core_cm3.h ****     #error "Compiler generates FPU instructions for a device without an FPU (check __FPU_PRESENT)"
  86:Drivers/CMSIS/Include/core_cm3.h ****   #endif
  87:Drivers/CMSIS/Include/core_cm3.h **** 
  88:Drivers/CMSIS/Include/core_cm3.h **** #elif defined ( __GNUC__ )
  89:Drivers/CMSIS/Include/core_cm3.h ****   #if defined (__VFP_FP__) && !defined(__SOFTFP__)
  90:Drivers/CMSIS/Include/core_cm3.h ****     #error "Compiler generates FPU instructions for a device without an FPU (check __FPU_PRESENT)"
  91:Drivers/CMSIS/Include/core_cm3.h ****   #endif
  92:Drivers/CMSIS/Include/core_cm3.h **** 
  93:Drivers/CMSIS/Include/core_cm3.h **** #elif defined ( __ICCARM__ )
  94:Drivers/CMSIS/Include/core_cm3.h ****   #if defined __ARMVFP__
  95:Drivers/CMSIS/Include/core_cm3.h ****     #error "Compiler generates FPU instructions for a device without an FPU (check __FPU_PRESENT)"
  96:Drivers/CMSIS/Include/core_cm3.h ****   #endif
  97:Drivers/CMSIS/Include/core_cm3.h **** 
  98:Drivers/CMSIS/Include/core_cm3.h **** #elif defined ( __TI_ARM__ )
  99:Drivers/CMSIS/Include/core_cm3.h ****   #if defined __TI_VFP_SUPPORT__
 100:Drivers/CMSIS/Include/core_cm3.h ****     #error "Compiler generates FPU instructions for a device without an FPU (check __FPU_PRESENT)"
 101:Drivers/CMSIS/Include/core_cm3.h ****   #endif
 102:Drivers/CMSIS/Include/core_cm3.h **** 
 103:Drivers/CMSIS/Include/core_cm3.h **** #elif defined ( __TASKING__ )
 104:Drivers/CMSIS/Include/core_cm3.h ****   #if defined __FPU_VFP__
 105:Drivers/CMSIS/Include/core_cm3.h ****     #error "Compiler generates FPU instructions for a device without an FPU (check __FPU_PRESENT)"
 106:Drivers/CMSIS/Include/core_cm3.h ****   #endif
 107:Drivers/CMSIS/Include/core_cm3.h **** 
 108:Drivers/CMSIS/Include/core_cm3.h **** #elif defined ( __CSMC__ )
 109:Drivers/CMSIS/Include/core_cm3.h ****   #if ( __CSMC__ & 0x400U)
 110:Drivers/CMSIS/Include/core_cm3.h ****     #error "Compiler generates FPU instructions for a device without an FPU (check __FPU_PRESENT)"
 111:Drivers/CMSIS/Include/core_cm3.h ****   #endif
 112:Drivers/CMSIS/Include/core_cm3.h **** 
 113:Drivers/CMSIS/Include/core_cm3.h **** #endif
 114:Drivers/CMSIS/Include/core_cm3.h **** 
 115:Drivers/CMSIS/Include/core_cm3.h **** #include "cmsis_compiler.h"               /* CMSIS compiler specific defines */
 116:Drivers/CMSIS/Include/core_cm3.h **** 
 117:Drivers/CMSIS/Include/core_cm3.h **** 
 118:Drivers/CMSIS/Include/core_cm3.h **** #ifdef __cplusplus
 119:Drivers/CMSIS/Include/core_cm3.h **** }
 120:Drivers/CMSIS/Include/core_cm3.h **** #endif
 121:Drivers/CMSIS/Include/core_cm3.h **** 
 122:Drivers/CMSIS/Include/core_cm3.h **** #endif /* __CORE_CM3_H_GENERIC */
 123:Drivers/CMSIS/Include/core_cm3.h **** 
 124:Drivers/CMSIS/Include/core_cm3.h **** #ifndef __CMSIS_GENERIC
 125:Drivers/CMSIS/Include/core_cm3.h **** 
 126:Drivers/CMSIS/Include/core_cm3.h **** #ifndef __CORE_CM3_H_DEPENDANT
 127:Drivers/CMSIS/Include/core_cm3.h **** #define __CORE_CM3_H_DEPENDANT
 128:Drivers/CMSIS/Include/core_cm3.h **** 
 129:Drivers/CMSIS/Include/core_cm3.h **** #ifdef __cplusplus
 130:Drivers/CMSIS/Include/core_cm3.h ****  extern "C" {
 131:Drivers/CMSIS/Include/core_cm3.h **** #endif
 132:Drivers/CMSIS/Include/core_cm3.h **** 
 133:Drivers/CMSIS/Include/core_cm3.h **** /* check device defines and use defaults */
 134:Drivers/CMSIS/Include/core_cm3.h **** #if defined __CHECK_DEVICE_DEFINES
 135:Drivers/CMSIS/Include/core_cm3.h ****   #ifndef __CM3_REV
 136:Drivers/CMSIS/Include/core_cm3.h ****     #define __CM3_REV               0x0200U
 137:Drivers/CMSIS/Include/core_cm3.h ****     #warning "__CM3_REV not defined in device header file; using default!"
 138:Drivers/CMSIS/Include/core_cm3.h ****   #endif
 139:Drivers/CMSIS/Include/core_cm3.h **** 
 140:Drivers/CMSIS/Include/core_cm3.h ****   #ifndef __MPU_PRESENT
 141:Drivers/CMSIS/Include/core_cm3.h ****     #define __MPU_PRESENT             0U
ARM GAS  C:\Users\Vento\AppData\Local\Temp\ccMWL8p6.s 			page 44


 142:Drivers/CMSIS/Include/core_cm3.h ****     #warning "__MPU_PRESENT not defined in device header file; using default!"
 143:Drivers/CMSIS/Include/core_cm3.h ****   #endif
 144:Drivers/CMSIS/Include/core_cm3.h **** 
 145:Drivers/CMSIS/Include/core_cm3.h ****   #ifndef __NVIC_PRIO_BITS
 146:Drivers/CMSIS/Include/core_cm3.h ****     #define __NVIC_PRIO_BITS          3U
 147:Drivers/CMSIS/Include/core_cm3.h ****     #warning "__NVIC_PRIO_BITS not defined in device header file; using default!"
 148:Drivers/CMSIS/Include/core_cm3.h ****   #endif
 149:Drivers/CMSIS/Include/core_cm3.h **** 
 150:Drivers/CMSIS/Include/core_cm3.h ****   #ifndef __Vendor_SysTickConfig
 151:Drivers/CMSIS/Include/core_cm3.h ****     #define __Vendor_SysTickConfig    0U
 152:Drivers/CMSIS/Include/core_cm3.h ****     #warning "__Vendor_SysTickConfig not defined in device header file; using default!"
 153:Drivers/CMSIS/Include/core_cm3.h ****   #endif
 154:Drivers/CMSIS/Include/core_cm3.h **** #endif
 155:Drivers/CMSIS/Include/core_cm3.h **** 
 156:Drivers/CMSIS/Include/core_cm3.h **** /* IO definitions (access restrictions to peripheral registers) */
 157:Drivers/CMSIS/Include/core_cm3.h **** /**
 158:Drivers/CMSIS/Include/core_cm3.h ****     \defgroup CMSIS_glob_defs CMSIS Global Defines
 159:Drivers/CMSIS/Include/core_cm3.h **** 
 160:Drivers/CMSIS/Include/core_cm3.h ****     <strong>IO Type Qualifiers</strong> are used
 161:Drivers/CMSIS/Include/core_cm3.h ****     \li to specify the access to peripheral variables.
 162:Drivers/CMSIS/Include/core_cm3.h ****     \li for automatic generation of peripheral register debug information.
 163:Drivers/CMSIS/Include/core_cm3.h **** */
 164:Drivers/CMSIS/Include/core_cm3.h **** #ifdef __cplusplus
 165:Drivers/CMSIS/Include/core_cm3.h ****   #define   __I     volatile             /*!< Defines 'read only' permissions */
 166:Drivers/CMSIS/Include/core_cm3.h **** #else
 167:Drivers/CMSIS/Include/core_cm3.h ****   #define   __I     volatile const       /*!< Defines 'read only' permissions */
 168:Drivers/CMSIS/Include/core_cm3.h **** #endif
 169:Drivers/CMSIS/Include/core_cm3.h **** #define     __O     volatile             /*!< Defines 'write only' permissions */
 170:Drivers/CMSIS/Include/core_cm3.h **** #define     __IO    volatile             /*!< Defines 'read / write' permissions */
 171:Drivers/CMSIS/Include/core_cm3.h **** 
 172:Drivers/CMSIS/Include/core_cm3.h **** /* following defines should be used for structure members */
 173:Drivers/CMSIS/Include/core_cm3.h **** #define     __IM     volatile const      /*! Defines 'read only' structure member permissions */
 174:Drivers/CMSIS/Include/core_cm3.h **** #define     __OM     volatile            /*! Defines 'write only' structure member permissions */
 175:Drivers/CMSIS/Include/core_cm3.h **** #define     __IOM    volatile            /*! Defines 'read / write' structure member permissions */
 176:Drivers/CMSIS/Include/core_cm3.h **** 
 177:Drivers/CMSIS/Include/core_cm3.h **** /*@} end of group Cortex_M3 */
 178:Drivers/CMSIS/Include/core_cm3.h **** 
 179:Drivers/CMSIS/Include/core_cm3.h **** 
 180:Drivers/CMSIS/Include/core_cm3.h **** 
 181:Drivers/CMSIS/Include/core_cm3.h **** /*******************************************************************************
 182:Drivers/CMSIS/Include/core_cm3.h ****  *                 Register Abstraction
 183:Drivers/CMSIS/Include/core_cm3.h ****   Core Register contain:
 184:Drivers/CMSIS/Include/core_cm3.h ****   - Core Register
 185:Drivers/CMSIS/Include/core_cm3.h ****   - Core NVIC Register
 186:Drivers/CMSIS/Include/core_cm3.h ****   - Core SCB Register
 187:Drivers/CMSIS/Include/core_cm3.h ****   - Core SysTick Register
 188:Drivers/CMSIS/Include/core_cm3.h ****   - Core Debug Register
 189:Drivers/CMSIS/Include/core_cm3.h ****   - Core MPU Register
 190:Drivers/CMSIS/Include/core_cm3.h ****  ******************************************************************************/
 191:Drivers/CMSIS/Include/core_cm3.h **** /**
 192:Drivers/CMSIS/Include/core_cm3.h ****   \defgroup CMSIS_core_register Defines and Type Definitions
 193:Drivers/CMSIS/Include/core_cm3.h ****   \brief Type definitions and defines for Cortex-M processor based devices.
 194:Drivers/CMSIS/Include/core_cm3.h **** */
 195:Drivers/CMSIS/Include/core_cm3.h **** 
 196:Drivers/CMSIS/Include/core_cm3.h **** /**
 197:Drivers/CMSIS/Include/core_cm3.h ****   \ingroup    CMSIS_core_register
 198:Drivers/CMSIS/Include/core_cm3.h ****   \defgroup   CMSIS_CORE  Status and Control Registers
ARM GAS  C:\Users\Vento\AppData\Local\Temp\ccMWL8p6.s 			page 45


 199:Drivers/CMSIS/Include/core_cm3.h ****   \brief      Core Register type definitions.
 200:Drivers/CMSIS/Include/core_cm3.h ****   @{
 201:Drivers/CMSIS/Include/core_cm3.h ****  */
 202:Drivers/CMSIS/Include/core_cm3.h **** 
 203:Drivers/CMSIS/Include/core_cm3.h **** /**
 204:Drivers/CMSIS/Include/core_cm3.h ****   \brief  Union type to access the Application Program Status Register (APSR).
 205:Drivers/CMSIS/Include/core_cm3.h ****  */
 206:Drivers/CMSIS/Include/core_cm3.h **** typedef union
 207:Drivers/CMSIS/Include/core_cm3.h **** {
 208:Drivers/CMSIS/Include/core_cm3.h ****   struct
 209:Drivers/CMSIS/Include/core_cm3.h ****   {
 210:Drivers/CMSIS/Include/core_cm3.h ****     uint32_t _reserved0:27;              /*!< bit:  0..26  Reserved */
 211:Drivers/CMSIS/Include/core_cm3.h ****     uint32_t Q:1;                        /*!< bit:     27  Saturation condition flag */
 212:Drivers/CMSIS/Include/core_cm3.h ****     uint32_t V:1;                        /*!< bit:     28  Overflow condition code flag */
 213:Drivers/CMSIS/Include/core_cm3.h ****     uint32_t C:1;                        /*!< bit:     29  Carry condition code flag */
 214:Drivers/CMSIS/Include/core_cm3.h ****     uint32_t Z:1;                        /*!< bit:     30  Zero condition code flag */
 215:Drivers/CMSIS/Include/core_cm3.h ****     uint32_t N:1;                        /*!< bit:     31  Negative condition code flag */
 216:Drivers/CMSIS/Include/core_cm3.h ****   } b;                                   /*!< Structure used for bit  access */
 217:Drivers/CMSIS/Include/core_cm3.h ****   uint32_t w;                            /*!< Type      used for word access */
 218:Drivers/CMSIS/Include/core_cm3.h **** } APSR_Type;
 219:Drivers/CMSIS/Include/core_cm3.h **** 
 220:Drivers/CMSIS/Include/core_cm3.h **** /* APSR Register Definitions */
 221:Drivers/CMSIS/Include/core_cm3.h **** #define APSR_N_Pos                         31U                                            /*!< APSR
 222:Drivers/CMSIS/Include/core_cm3.h **** #define APSR_N_Msk                         (1UL << APSR_N_Pos)                            /*!< APSR
 223:Drivers/CMSIS/Include/core_cm3.h **** 
 224:Drivers/CMSIS/Include/core_cm3.h **** #define APSR_Z_Pos                         30U                                            /*!< APSR
 225:Drivers/CMSIS/Include/core_cm3.h **** #define APSR_Z_Msk                         (1UL << APSR_Z_Pos)                            /*!< APSR
 226:Drivers/CMSIS/Include/core_cm3.h **** 
 227:Drivers/CMSIS/Include/core_cm3.h **** #define APSR_C_Pos                         29U                                            /*!< APSR
 228:Drivers/CMSIS/Include/core_cm3.h **** #define APSR_C_Msk                         (1UL << APSR_C_Pos)                            /*!< APSR
 229:Drivers/CMSIS/Include/core_cm3.h **** 
 230:Drivers/CMSIS/Include/core_cm3.h **** #define APSR_V_Pos                         28U                                            /*!< APSR
 231:Drivers/CMSIS/Include/core_cm3.h **** #define APSR_V_Msk                         (1UL << APSR_V_Pos)                            /*!< APSR
 232:Drivers/CMSIS/Include/core_cm3.h **** 
 233:Drivers/CMSIS/Include/core_cm3.h **** #define APSR_Q_Pos                         27U                                            /*!< APSR
 234:Drivers/CMSIS/Include/core_cm3.h **** #define APSR_Q_Msk                         (1UL << APSR_Q_Pos)                            /*!< APSR
 235:Drivers/CMSIS/Include/core_cm3.h **** 
 236:Drivers/CMSIS/Include/core_cm3.h **** 
 237:Drivers/CMSIS/Include/core_cm3.h **** /**
 238:Drivers/CMSIS/Include/core_cm3.h ****   \brief  Union type to access the Interrupt Program Status Register (IPSR).
 239:Drivers/CMSIS/Include/core_cm3.h ****  */
 240:Drivers/CMSIS/Include/core_cm3.h **** typedef union
 241:Drivers/CMSIS/Include/core_cm3.h **** {
 242:Drivers/CMSIS/Include/core_cm3.h ****   struct
 243:Drivers/CMSIS/Include/core_cm3.h ****   {
 244:Drivers/CMSIS/Include/core_cm3.h ****     uint32_t ISR:9;                      /*!< bit:  0.. 8  Exception number */
 245:Drivers/CMSIS/Include/core_cm3.h ****     uint32_t _reserved0:23;              /*!< bit:  9..31  Reserved */
 246:Drivers/CMSIS/Include/core_cm3.h ****   } b;                                   /*!< Structure used for bit  access */
 247:Drivers/CMSIS/Include/core_cm3.h ****   uint32_t w;                            /*!< Type      used for word access */
 248:Drivers/CMSIS/Include/core_cm3.h **** } IPSR_Type;
 249:Drivers/CMSIS/Include/core_cm3.h **** 
 250:Drivers/CMSIS/Include/core_cm3.h **** /* IPSR Register Definitions */
 251:Drivers/CMSIS/Include/core_cm3.h **** #define IPSR_ISR_Pos                        0U                                            /*!< IPSR
 252:Drivers/CMSIS/Include/core_cm3.h **** #define IPSR_ISR_Msk                       (0x1FFUL /*<< IPSR_ISR_Pos*/)                  /*!< IPSR
 253:Drivers/CMSIS/Include/core_cm3.h **** 
 254:Drivers/CMSIS/Include/core_cm3.h **** 
 255:Drivers/CMSIS/Include/core_cm3.h **** /**
ARM GAS  C:\Users\Vento\AppData\Local\Temp\ccMWL8p6.s 			page 46


 256:Drivers/CMSIS/Include/core_cm3.h ****   \brief  Union type to access the Special-Purpose Program Status Registers (xPSR).
 257:Drivers/CMSIS/Include/core_cm3.h ****  */
 258:Drivers/CMSIS/Include/core_cm3.h **** typedef union
 259:Drivers/CMSIS/Include/core_cm3.h **** {
 260:Drivers/CMSIS/Include/core_cm3.h ****   struct
 261:Drivers/CMSIS/Include/core_cm3.h ****   {
 262:Drivers/CMSIS/Include/core_cm3.h ****     uint32_t ISR:9;                      /*!< bit:  0.. 8  Exception number */
 263:Drivers/CMSIS/Include/core_cm3.h ****     uint32_t _reserved0:1;               /*!< bit:      9  Reserved */
 264:Drivers/CMSIS/Include/core_cm3.h ****     uint32_t ICI_IT_1:6;                 /*!< bit: 10..15  ICI/IT part 1 */
 265:Drivers/CMSIS/Include/core_cm3.h ****     uint32_t _reserved1:8;               /*!< bit: 16..23  Reserved */
 266:Drivers/CMSIS/Include/core_cm3.h ****     uint32_t T:1;                        /*!< bit:     24  Thumb bit */
 267:Drivers/CMSIS/Include/core_cm3.h ****     uint32_t ICI_IT_2:2;                 /*!< bit: 25..26  ICI/IT part 2 */
 268:Drivers/CMSIS/Include/core_cm3.h ****     uint32_t Q:1;                        /*!< bit:     27  Saturation condition flag */
 269:Drivers/CMSIS/Include/core_cm3.h ****     uint32_t V:1;                        /*!< bit:     28  Overflow condition code flag */
 270:Drivers/CMSIS/Include/core_cm3.h ****     uint32_t C:1;                        /*!< bit:     29  Carry condition code flag */
 271:Drivers/CMSIS/Include/core_cm3.h ****     uint32_t Z:1;                        /*!< bit:     30  Zero condition code flag */
 272:Drivers/CMSIS/Include/core_cm3.h ****     uint32_t N:1;                        /*!< bit:     31  Negative condition code flag */
 273:Drivers/CMSIS/Include/core_cm3.h ****   } b;                                   /*!< Structure used for bit  access */
 274:Drivers/CMSIS/Include/core_cm3.h ****   uint32_t w;                            /*!< Type      used for word access */
 275:Drivers/CMSIS/Include/core_cm3.h **** } xPSR_Type;
 276:Drivers/CMSIS/Include/core_cm3.h **** 
 277:Drivers/CMSIS/Include/core_cm3.h **** /* xPSR Register Definitions */
 278:Drivers/CMSIS/Include/core_cm3.h **** #define xPSR_N_Pos                         31U                                            /*!< xPSR
 279:Drivers/CMSIS/Include/core_cm3.h **** #define xPSR_N_Msk                         (1UL << xPSR_N_Pos)                            /*!< xPSR
 280:Drivers/CMSIS/Include/core_cm3.h **** 
 281:Drivers/CMSIS/Include/core_cm3.h **** #define xPSR_Z_Pos                         30U                                            /*!< xPSR
 282:Drivers/CMSIS/Include/core_cm3.h **** #define xPSR_Z_Msk                         (1UL << xPSR_Z_Pos)                            /*!< xPSR
 283:Drivers/CMSIS/Include/core_cm3.h **** 
 284:Drivers/CMSIS/Include/core_cm3.h **** #define xPSR_C_Pos                         29U                                            /*!< xPSR
 285:Drivers/CMSIS/Include/core_cm3.h **** #define xPSR_C_Msk                         (1UL << xPSR_C_Pos)                            /*!< xPSR
 286:Drivers/CMSIS/Include/core_cm3.h **** 
 287:Drivers/CMSIS/Include/core_cm3.h **** #define xPSR_V_Pos                         28U                                            /*!< xPSR
 288:Drivers/CMSIS/Include/core_cm3.h **** #define xPSR_V_Msk                         (1UL << xPSR_V_Pos)                            /*!< xPSR
 289:Drivers/CMSIS/Include/core_cm3.h **** 
 290:Drivers/CMSIS/Include/core_cm3.h **** #define xPSR_Q_Pos                         27U                                            /*!< xPSR
 291:Drivers/CMSIS/Include/core_cm3.h **** #define xPSR_Q_Msk                         (1UL << xPSR_Q_Pos)                            /*!< xPSR
 292:Drivers/CMSIS/Include/core_cm3.h **** 
 293:Drivers/CMSIS/Include/core_cm3.h **** #define xPSR_ICI_IT_2_Pos                  25U                                            /*!< xPSR
 294:Drivers/CMSIS/Include/core_cm3.h **** #define xPSR_ICI_IT_2_Msk                  (3UL << xPSR_ICI_IT_2_Pos)                     /*!< xPSR
 295:Drivers/CMSIS/Include/core_cm3.h **** 
 296:Drivers/CMSIS/Include/core_cm3.h **** #define xPSR_T_Pos                         24U                                            /*!< xPSR
 297:Drivers/CMSIS/Include/core_cm3.h **** #define xPSR_T_Msk                         (1UL << xPSR_T_Pos)                            /*!< xPSR
 298:Drivers/CMSIS/Include/core_cm3.h **** 
 299:Drivers/CMSIS/Include/core_cm3.h **** #define xPSR_ICI_IT_1_Pos                  10U                                            /*!< xPSR
 300:Drivers/CMSIS/Include/core_cm3.h **** #define xPSR_ICI_IT_1_Msk                  (0x3FUL << xPSR_ICI_IT_1_Pos)                  /*!< xPSR
 301:Drivers/CMSIS/Include/core_cm3.h **** 
 302:Drivers/CMSIS/Include/core_cm3.h **** #define xPSR_ISR_Pos                        0U                                            /*!< xPSR
 303:Drivers/CMSIS/Include/core_cm3.h **** #define xPSR_ISR_Msk                       (0x1FFUL /*<< xPSR_ISR_Pos*/)                  /*!< xPSR
 304:Drivers/CMSIS/Include/core_cm3.h **** 
 305:Drivers/CMSIS/Include/core_cm3.h **** 
 306:Drivers/CMSIS/Include/core_cm3.h **** /**
 307:Drivers/CMSIS/Include/core_cm3.h ****   \brief  Union type to access the Control Registers (CONTROL).
 308:Drivers/CMSIS/Include/core_cm3.h ****  */
 309:Drivers/CMSIS/Include/core_cm3.h **** typedef union
 310:Drivers/CMSIS/Include/core_cm3.h **** {
 311:Drivers/CMSIS/Include/core_cm3.h ****   struct
 312:Drivers/CMSIS/Include/core_cm3.h ****   {
ARM GAS  C:\Users\Vento\AppData\Local\Temp\ccMWL8p6.s 			page 47


 313:Drivers/CMSIS/Include/core_cm3.h ****     uint32_t nPRIV:1;                    /*!< bit:      0  Execution privilege in Thread mode */
 314:Drivers/CMSIS/Include/core_cm3.h ****     uint32_t SPSEL:1;                    /*!< bit:      1  Stack to be used */
 315:Drivers/CMSIS/Include/core_cm3.h ****     uint32_t _reserved1:30;              /*!< bit:  2..31  Reserved */
 316:Drivers/CMSIS/Include/core_cm3.h ****   } b;                                   /*!< Structure used for bit  access */
 317:Drivers/CMSIS/Include/core_cm3.h ****   uint32_t w;                            /*!< Type      used for word access */
 318:Drivers/CMSIS/Include/core_cm3.h **** } CONTROL_Type;
 319:Drivers/CMSIS/Include/core_cm3.h **** 
 320:Drivers/CMSIS/Include/core_cm3.h **** /* CONTROL Register Definitions */
 321:Drivers/CMSIS/Include/core_cm3.h **** #define CONTROL_SPSEL_Pos                   1U                                            /*!< CONT
 322:Drivers/CMSIS/Include/core_cm3.h **** #define CONTROL_SPSEL_Msk                  (1UL << CONTROL_SPSEL_Pos)                     /*!< CONT
 323:Drivers/CMSIS/Include/core_cm3.h **** 
 324:Drivers/CMSIS/Include/core_cm3.h **** #define CONTROL_nPRIV_Pos                   0U                                            /*!< CONT
 325:Drivers/CMSIS/Include/core_cm3.h **** #define CONTROL_nPRIV_Msk                  (1UL /*<< CONTROL_nPRIV_Pos*/)                 /*!< CONT
 326:Drivers/CMSIS/Include/core_cm3.h **** 
 327:Drivers/CMSIS/Include/core_cm3.h **** /*@} end of group CMSIS_CORE */
 328:Drivers/CMSIS/Include/core_cm3.h **** 
 329:Drivers/CMSIS/Include/core_cm3.h **** 
 330:Drivers/CMSIS/Include/core_cm3.h **** /**
 331:Drivers/CMSIS/Include/core_cm3.h ****   \ingroup    CMSIS_core_register
 332:Drivers/CMSIS/Include/core_cm3.h ****   \defgroup   CMSIS_NVIC  Nested Vectored Interrupt Controller (NVIC)
 333:Drivers/CMSIS/Include/core_cm3.h ****   \brief      Type definitions for the NVIC Registers
 334:Drivers/CMSIS/Include/core_cm3.h ****   @{
 335:Drivers/CMSIS/Include/core_cm3.h ****  */
 336:Drivers/CMSIS/Include/core_cm3.h **** 
 337:Drivers/CMSIS/Include/core_cm3.h **** /**
 338:Drivers/CMSIS/Include/core_cm3.h ****   \brief  Structure type to access the Nested Vectored Interrupt Controller (NVIC).
 339:Drivers/CMSIS/Include/core_cm3.h ****  */
 340:Drivers/CMSIS/Include/core_cm3.h **** typedef struct
 341:Drivers/CMSIS/Include/core_cm3.h **** {
 342:Drivers/CMSIS/Include/core_cm3.h ****   __IOM uint32_t ISER[8U];               /*!< Offset: 0x000 (R/W)  Interrupt Set Enable Register */
 343:Drivers/CMSIS/Include/core_cm3.h ****         uint32_t RESERVED0[24U];
 344:Drivers/CMSIS/Include/core_cm3.h ****   __IOM uint32_t ICER[8U];               /*!< Offset: 0x080 (R/W)  Interrupt Clear Enable Register 
 345:Drivers/CMSIS/Include/core_cm3.h ****         uint32_t RSERVED1[24U];
 346:Drivers/CMSIS/Include/core_cm3.h ****   __IOM uint32_t ISPR[8U];               /*!< Offset: 0x100 (R/W)  Interrupt Set Pending Register *
 347:Drivers/CMSIS/Include/core_cm3.h ****         uint32_t RESERVED2[24U];
 348:Drivers/CMSIS/Include/core_cm3.h ****   __IOM uint32_t ICPR[8U];               /*!< Offset: 0x180 (R/W)  Interrupt Clear Pending Register
 349:Drivers/CMSIS/Include/core_cm3.h ****         uint32_t RESERVED3[24U];
 350:Drivers/CMSIS/Include/core_cm3.h ****   __IOM uint32_t IABR[8U];               /*!< Offset: 0x200 (R/W)  Interrupt Active bit Register */
 351:Drivers/CMSIS/Include/core_cm3.h ****         uint32_t RESERVED4[56U];
 352:Drivers/CMSIS/Include/core_cm3.h ****   __IOM uint8_t  IP[240U];               /*!< Offset: 0x300 (R/W)  Interrupt Priority Register (8Bi
 353:Drivers/CMSIS/Include/core_cm3.h ****         uint32_t RESERVED5[644U];
 354:Drivers/CMSIS/Include/core_cm3.h ****   __OM  uint32_t STIR;                   /*!< Offset: 0xE00 ( /W)  Software Trigger Interrupt Regis
 355:Drivers/CMSIS/Include/core_cm3.h **** }  NVIC_Type;
 356:Drivers/CMSIS/Include/core_cm3.h **** 
 357:Drivers/CMSIS/Include/core_cm3.h **** /* Software Triggered Interrupt Register Definitions */
 358:Drivers/CMSIS/Include/core_cm3.h **** #define NVIC_STIR_INTID_Pos                 0U                                         /*!< STIR: I
 359:Drivers/CMSIS/Include/core_cm3.h **** #define NVIC_STIR_INTID_Msk                (0x1FFUL /*<< NVIC_STIR_INTID_Pos*/)        /*!< STIR: I
 360:Drivers/CMSIS/Include/core_cm3.h **** 
 361:Drivers/CMSIS/Include/core_cm3.h **** /*@} end of group CMSIS_NVIC */
 362:Drivers/CMSIS/Include/core_cm3.h **** 
 363:Drivers/CMSIS/Include/core_cm3.h **** 
 364:Drivers/CMSIS/Include/core_cm3.h **** /**
 365:Drivers/CMSIS/Include/core_cm3.h ****   \ingroup  CMSIS_core_register
 366:Drivers/CMSIS/Include/core_cm3.h ****   \defgroup CMSIS_SCB     System Control Block (SCB)
 367:Drivers/CMSIS/Include/core_cm3.h ****   \brief    Type definitions for the System Control Block Registers
 368:Drivers/CMSIS/Include/core_cm3.h ****   @{
 369:Drivers/CMSIS/Include/core_cm3.h ****  */
ARM GAS  C:\Users\Vento\AppData\Local\Temp\ccMWL8p6.s 			page 48


 370:Drivers/CMSIS/Include/core_cm3.h **** 
 371:Drivers/CMSIS/Include/core_cm3.h **** /**
 372:Drivers/CMSIS/Include/core_cm3.h ****   \brief  Structure type to access the System Control Block (SCB).
 373:Drivers/CMSIS/Include/core_cm3.h ****  */
 374:Drivers/CMSIS/Include/core_cm3.h **** typedef struct
 375:Drivers/CMSIS/Include/core_cm3.h **** {
 376:Drivers/CMSIS/Include/core_cm3.h ****   __IM  uint32_t CPUID;                  /*!< Offset: 0x000 (R/ )  CPUID Base Register */
 377:Drivers/CMSIS/Include/core_cm3.h ****   __IOM uint32_t ICSR;                   /*!< Offset: 0x004 (R/W)  Interrupt Control and State Regi
 378:Drivers/CMSIS/Include/core_cm3.h ****   __IOM uint32_t VTOR;                   /*!< Offset: 0x008 (R/W)  Vector Table Offset Register */
 379:Drivers/CMSIS/Include/core_cm3.h ****   __IOM uint32_t AIRCR;                  /*!< Offset: 0x00C (R/W)  Application Interrupt and Reset 
 380:Drivers/CMSIS/Include/core_cm3.h ****   __IOM uint32_t SCR;                    /*!< Offset: 0x010 (R/W)  System Control Register */
 381:Drivers/CMSIS/Include/core_cm3.h ****   __IOM uint32_t CCR;                    /*!< Offset: 0x014 (R/W)  Configuration Control Register *
 382:Drivers/CMSIS/Include/core_cm3.h ****   __IOM uint8_t  SHP[12U];               /*!< Offset: 0x018 (R/W)  System Handlers Priority Registe
 383:Drivers/CMSIS/Include/core_cm3.h ****   __IOM uint32_t SHCSR;                  /*!< Offset: 0x024 (R/W)  System Handler Control and State
 384:Drivers/CMSIS/Include/core_cm3.h ****   __IOM uint32_t CFSR;                   /*!< Offset: 0x028 (R/W)  Configurable Fault Status Regist
 385:Drivers/CMSIS/Include/core_cm3.h ****   __IOM uint32_t HFSR;                   /*!< Offset: 0x02C (R/W)  HardFault Status Register */
 386:Drivers/CMSIS/Include/core_cm3.h ****   __IOM uint32_t DFSR;                   /*!< Offset: 0x030 (R/W)  Debug Fault Status Register */
 387:Drivers/CMSIS/Include/core_cm3.h ****   __IOM uint32_t MMFAR;                  /*!< Offset: 0x034 (R/W)  MemManage Fault Address Register
 388:Drivers/CMSIS/Include/core_cm3.h ****   __IOM uint32_t BFAR;                   /*!< Offset: 0x038 (R/W)  BusFault Address Register */
 389:Drivers/CMSIS/Include/core_cm3.h ****   __IOM uint32_t AFSR;                   /*!< Offset: 0x03C (R/W)  Auxiliary Fault Status Register 
 390:Drivers/CMSIS/Include/core_cm3.h ****   __IM  uint32_t PFR[2U];                /*!< Offset: 0x040 (R/ )  Processor Feature Register */
 391:Drivers/CMSIS/Include/core_cm3.h ****   __IM  uint32_t DFR;                    /*!< Offset: 0x048 (R/ )  Debug Feature Register */
 392:Drivers/CMSIS/Include/core_cm3.h ****   __IM  uint32_t ADR;                    /*!< Offset: 0x04C (R/ )  Auxiliary Feature Register */
 393:Drivers/CMSIS/Include/core_cm3.h ****   __IM  uint32_t MMFR[4U];               /*!< Offset: 0x050 (R/ )  Memory Model Feature Register */
 394:Drivers/CMSIS/Include/core_cm3.h ****   __IM  uint32_t ISAR[5U];               /*!< Offset: 0x060 (R/ )  Instruction Set Attributes Regis
 395:Drivers/CMSIS/Include/core_cm3.h ****         uint32_t RESERVED0[5U];
 396:Drivers/CMSIS/Include/core_cm3.h ****   __IOM uint32_t CPACR;                  /*!< Offset: 0x088 (R/W)  Coprocessor Access Control Regis
 397:Drivers/CMSIS/Include/core_cm3.h **** } SCB_Type;
 398:Drivers/CMSIS/Include/core_cm3.h **** 
 399:Drivers/CMSIS/Include/core_cm3.h **** /* SCB CPUID Register Definitions */
 400:Drivers/CMSIS/Include/core_cm3.h **** #define SCB_CPUID_IMPLEMENTER_Pos          24U                                            /*!< SCB 
 401:Drivers/CMSIS/Include/core_cm3.h **** #define SCB_CPUID_IMPLEMENTER_Msk          (0xFFUL << SCB_CPUID_IMPLEMENTER_Pos)          /*!< SCB 
 402:Drivers/CMSIS/Include/core_cm3.h **** 
 403:Drivers/CMSIS/Include/core_cm3.h **** #define SCB_CPUID_VARIANT_Pos              20U                                            /*!< SCB 
 404:Drivers/CMSIS/Include/core_cm3.h **** #define SCB_CPUID_VARIANT_Msk              (0xFUL << SCB_CPUID_VARIANT_Pos)               /*!< SCB 
 405:Drivers/CMSIS/Include/core_cm3.h **** 
 406:Drivers/CMSIS/Include/core_cm3.h **** #define SCB_CPUID_ARCHITECTURE_Pos         16U                                            /*!< SCB 
 407:Drivers/CMSIS/Include/core_cm3.h **** #define SCB_CPUID_ARCHITECTURE_Msk         (0xFUL << SCB_CPUID_ARCHITECTURE_Pos)          /*!< SCB 
 408:Drivers/CMSIS/Include/core_cm3.h **** 
 409:Drivers/CMSIS/Include/core_cm3.h **** #define SCB_CPUID_PARTNO_Pos                4U                                            /*!< SCB 
 410:Drivers/CMSIS/Include/core_cm3.h **** #define SCB_CPUID_PARTNO_Msk               (0xFFFUL << SCB_CPUID_PARTNO_Pos)              /*!< SCB 
 411:Drivers/CMSIS/Include/core_cm3.h **** 
 412:Drivers/CMSIS/Include/core_cm3.h **** #define SCB_CPUID_REVISION_Pos              0U                                            /*!< SCB 
 413:Drivers/CMSIS/Include/core_cm3.h **** #define SCB_CPUID_REVISION_Msk             (0xFUL /*<< SCB_CPUID_REVISION_Pos*/)          /*!< SCB 
 414:Drivers/CMSIS/Include/core_cm3.h **** 
 415:Drivers/CMSIS/Include/core_cm3.h **** /* SCB Interrupt Control State Register Definitions */
 416:Drivers/CMSIS/Include/core_cm3.h **** #define SCB_ICSR_NMIPENDSET_Pos            31U                                            /*!< SCB 
 417:Drivers/CMSIS/Include/core_cm3.h **** #define SCB_ICSR_NMIPENDSET_Msk            (1UL << SCB_ICSR_NMIPENDSET_Pos)               /*!< SCB 
 418:Drivers/CMSIS/Include/core_cm3.h **** 
 419:Drivers/CMSIS/Include/core_cm3.h **** #define SCB_ICSR_PENDSVSET_Pos             28U                                            /*!< SCB 
 420:Drivers/CMSIS/Include/core_cm3.h **** #define SCB_ICSR_PENDSVSET_Msk             (1UL << SCB_ICSR_PENDSVSET_Pos)                /*!< SCB 
 421:Drivers/CMSIS/Include/core_cm3.h **** 
 422:Drivers/CMSIS/Include/core_cm3.h **** #define SCB_ICSR_PENDSVCLR_Pos             27U                                            /*!< SCB 
 423:Drivers/CMSIS/Include/core_cm3.h **** #define SCB_ICSR_PENDSVCLR_Msk             (1UL << SCB_ICSR_PENDSVCLR_Pos)                /*!< SCB 
 424:Drivers/CMSIS/Include/core_cm3.h **** 
 425:Drivers/CMSIS/Include/core_cm3.h **** #define SCB_ICSR_PENDSTSET_Pos             26U                                            /*!< SCB 
 426:Drivers/CMSIS/Include/core_cm3.h **** #define SCB_ICSR_PENDSTSET_Msk             (1UL << SCB_ICSR_PENDSTSET_Pos)                /*!< SCB 
ARM GAS  C:\Users\Vento\AppData\Local\Temp\ccMWL8p6.s 			page 49


 427:Drivers/CMSIS/Include/core_cm3.h **** 
 428:Drivers/CMSIS/Include/core_cm3.h **** #define SCB_ICSR_PENDSTCLR_Pos             25U                                            /*!< SCB 
 429:Drivers/CMSIS/Include/core_cm3.h **** #define SCB_ICSR_PENDSTCLR_Msk             (1UL << SCB_ICSR_PENDSTCLR_Pos)                /*!< SCB 
 430:Drivers/CMSIS/Include/core_cm3.h **** 
 431:Drivers/CMSIS/Include/core_cm3.h **** #define SCB_ICSR_ISRPREEMPT_Pos            23U                                            /*!< SCB 
 432:Drivers/CMSIS/Include/core_cm3.h **** #define SCB_ICSR_ISRPREEMPT_Msk            (1UL << SCB_ICSR_ISRPREEMPT_Pos)               /*!< SCB 
 433:Drivers/CMSIS/Include/core_cm3.h **** 
 434:Drivers/CMSIS/Include/core_cm3.h **** #define SCB_ICSR_ISRPENDING_Pos            22U                                            /*!< SCB 
 435:Drivers/CMSIS/Include/core_cm3.h **** #define SCB_ICSR_ISRPENDING_Msk            (1UL << SCB_ICSR_ISRPENDING_Pos)               /*!< SCB 
 436:Drivers/CMSIS/Include/core_cm3.h **** 
 437:Drivers/CMSIS/Include/core_cm3.h **** #define SCB_ICSR_VECTPENDING_Pos           12U                                            /*!< SCB 
 438:Drivers/CMSIS/Include/core_cm3.h **** #define SCB_ICSR_VECTPENDING_Msk           (0x1FFUL << SCB_ICSR_VECTPENDING_Pos)          /*!< SCB 
 439:Drivers/CMSIS/Include/core_cm3.h **** 
 440:Drivers/CMSIS/Include/core_cm3.h **** #define SCB_ICSR_RETTOBASE_Pos             11U                                            /*!< SCB 
 441:Drivers/CMSIS/Include/core_cm3.h **** #define SCB_ICSR_RETTOBASE_Msk             (1UL << SCB_ICSR_RETTOBASE_Pos)                /*!< SCB 
 442:Drivers/CMSIS/Include/core_cm3.h **** 
 443:Drivers/CMSIS/Include/core_cm3.h **** #define SCB_ICSR_VECTACTIVE_Pos             0U                                            /*!< SCB 
 444:Drivers/CMSIS/Include/core_cm3.h **** #define SCB_ICSR_VECTACTIVE_Msk            (0x1FFUL /*<< SCB_ICSR_VECTACTIVE_Pos*/)       /*!< SCB 
 445:Drivers/CMSIS/Include/core_cm3.h **** 
 446:Drivers/CMSIS/Include/core_cm3.h **** /* SCB Vector Table Offset Register Definitions */
 447:Drivers/CMSIS/Include/core_cm3.h **** #if defined (__CM3_REV) && (__CM3_REV < 0x0201U)                   /* core r2p1 */
 448:Drivers/CMSIS/Include/core_cm3.h **** #define SCB_VTOR_TBLBASE_Pos               29U                                            /*!< SCB 
 449:Drivers/CMSIS/Include/core_cm3.h **** #define SCB_VTOR_TBLBASE_Msk               (1UL << SCB_VTOR_TBLBASE_Pos)                  /*!< SCB 
 450:Drivers/CMSIS/Include/core_cm3.h **** 
 451:Drivers/CMSIS/Include/core_cm3.h **** #define SCB_VTOR_TBLOFF_Pos                 7U                                            /*!< SCB 
 452:Drivers/CMSIS/Include/core_cm3.h **** #define SCB_VTOR_TBLOFF_Msk                (0x3FFFFFUL << SCB_VTOR_TBLOFF_Pos)            /*!< SCB 
 453:Drivers/CMSIS/Include/core_cm3.h **** #else
 454:Drivers/CMSIS/Include/core_cm3.h **** #define SCB_VTOR_TBLOFF_Pos                 7U                                            /*!< SCB 
 455:Drivers/CMSIS/Include/core_cm3.h **** #define SCB_VTOR_TBLOFF_Msk                (0x1FFFFFFUL << SCB_VTOR_TBLOFF_Pos)           /*!< SCB 
 456:Drivers/CMSIS/Include/core_cm3.h **** #endif
 457:Drivers/CMSIS/Include/core_cm3.h **** 
 458:Drivers/CMSIS/Include/core_cm3.h **** /* SCB Application Interrupt and Reset Control Register Definitions */
 459:Drivers/CMSIS/Include/core_cm3.h **** #define SCB_AIRCR_VECTKEY_Pos              16U                                            /*!< SCB 
 460:Drivers/CMSIS/Include/core_cm3.h **** #define SCB_AIRCR_VECTKEY_Msk              (0xFFFFUL << SCB_AIRCR_VECTKEY_Pos)            /*!< SCB 
 461:Drivers/CMSIS/Include/core_cm3.h **** 
 462:Drivers/CMSIS/Include/core_cm3.h **** #define SCB_AIRCR_VECTKEYSTAT_Pos          16U                                            /*!< SCB 
 463:Drivers/CMSIS/Include/core_cm3.h **** #define SCB_AIRCR_VECTKEYSTAT_Msk          (0xFFFFUL << SCB_AIRCR_VECTKEYSTAT_Pos)        /*!< SCB 
 464:Drivers/CMSIS/Include/core_cm3.h **** 
 465:Drivers/CMSIS/Include/core_cm3.h **** #define SCB_AIRCR_ENDIANESS_Pos            15U                                            /*!< SCB 
 466:Drivers/CMSIS/Include/core_cm3.h **** #define SCB_AIRCR_ENDIANESS_Msk            (1UL << SCB_AIRCR_ENDIANESS_Pos)               /*!< SCB 
 467:Drivers/CMSIS/Include/core_cm3.h **** 
 468:Drivers/CMSIS/Include/core_cm3.h **** #define SCB_AIRCR_PRIGROUP_Pos              8U                                            /*!< SCB 
 469:Drivers/CMSIS/Include/core_cm3.h **** #define SCB_AIRCR_PRIGROUP_Msk             (7UL << SCB_AIRCR_PRIGROUP_Pos)                /*!< SCB 
 470:Drivers/CMSIS/Include/core_cm3.h **** 
 471:Drivers/CMSIS/Include/core_cm3.h **** #define SCB_AIRCR_SYSRESETREQ_Pos           2U                                            /*!< SCB 
 472:Drivers/CMSIS/Include/core_cm3.h **** #define SCB_AIRCR_SYSRESETREQ_Msk          (1UL << SCB_AIRCR_SYSRESETREQ_Pos)             /*!< SCB 
 473:Drivers/CMSIS/Include/core_cm3.h **** 
 474:Drivers/CMSIS/Include/core_cm3.h **** #define SCB_AIRCR_VECTCLRACTIVE_Pos         1U                                            /*!< SCB 
 475:Drivers/CMSIS/Include/core_cm3.h **** #define SCB_AIRCR_VECTCLRACTIVE_Msk        (1UL << SCB_AIRCR_VECTCLRACTIVE_Pos)           /*!< SCB 
 476:Drivers/CMSIS/Include/core_cm3.h **** 
 477:Drivers/CMSIS/Include/core_cm3.h **** #define SCB_AIRCR_VECTRESET_Pos             0U                                            /*!< SCB 
 478:Drivers/CMSIS/Include/core_cm3.h **** #define SCB_AIRCR_VECTRESET_Msk            (1UL /*<< SCB_AIRCR_VECTRESET_Pos*/)           /*!< SCB 
 479:Drivers/CMSIS/Include/core_cm3.h **** 
 480:Drivers/CMSIS/Include/core_cm3.h **** /* SCB System Control Register Definitions */
 481:Drivers/CMSIS/Include/core_cm3.h **** #define SCB_SCR_SEVONPEND_Pos               4U                                            /*!< SCB 
 482:Drivers/CMSIS/Include/core_cm3.h **** #define SCB_SCR_SEVONPEND_Msk              (1UL << SCB_SCR_SEVONPEND_Pos)                 /*!< SCB 
 483:Drivers/CMSIS/Include/core_cm3.h **** 
ARM GAS  C:\Users\Vento\AppData\Local\Temp\ccMWL8p6.s 			page 50


 484:Drivers/CMSIS/Include/core_cm3.h **** #define SCB_SCR_SLEEPDEEP_Pos               2U                                            /*!< SCB 
 485:Drivers/CMSIS/Include/core_cm3.h **** #define SCB_SCR_SLEEPDEEP_Msk              (1UL << SCB_SCR_SLEEPDEEP_Pos)                 /*!< SCB 
 486:Drivers/CMSIS/Include/core_cm3.h **** 
 487:Drivers/CMSIS/Include/core_cm3.h **** #define SCB_SCR_SLEEPONEXIT_Pos             1U                                            /*!< SCB 
 488:Drivers/CMSIS/Include/core_cm3.h **** #define SCB_SCR_SLEEPONEXIT_Msk            (1UL << SCB_SCR_SLEEPONEXIT_Pos)               /*!< SCB 
 489:Drivers/CMSIS/Include/core_cm3.h **** 
 490:Drivers/CMSIS/Include/core_cm3.h **** /* SCB Configuration Control Register Definitions */
 491:Drivers/CMSIS/Include/core_cm3.h **** #define SCB_CCR_STKALIGN_Pos                9U                                            /*!< SCB 
 492:Drivers/CMSIS/Include/core_cm3.h **** #define SCB_CCR_STKALIGN_Msk               (1UL << SCB_CCR_STKALIGN_Pos)                  /*!< SCB 
 493:Drivers/CMSIS/Include/core_cm3.h **** 
 494:Drivers/CMSIS/Include/core_cm3.h **** #define SCB_CCR_BFHFNMIGN_Pos               8U                                            /*!< SCB 
 495:Drivers/CMSIS/Include/core_cm3.h **** #define SCB_CCR_BFHFNMIGN_Msk              (1UL << SCB_CCR_BFHFNMIGN_Pos)                 /*!< SCB 
 496:Drivers/CMSIS/Include/core_cm3.h **** 
 497:Drivers/CMSIS/Include/core_cm3.h **** #define SCB_CCR_DIV_0_TRP_Pos               4U                                            /*!< SCB 
 498:Drivers/CMSIS/Include/core_cm3.h **** #define SCB_CCR_DIV_0_TRP_Msk              (1UL << SCB_CCR_DIV_0_TRP_Pos)                 /*!< SCB 
 499:Drivers/CMSIS/Include/core_cm3.h **** 
 500:Drivers/CMSIS/Include/core_cm3.h **** #define SCB_CCR_UNALIGN_TRP_Pos             3U                                            /*!< SCB 
 501:Drivers/CMSIS/Include/core_cm3.h **** #define SCB_CCR_UNALIGN_TRP_Msk            (1UL << SCB_CCR_UNALIGN_TRP_Pos)               /*!< SCB 
 502:Drivers/CMSIS/Include/core_cm3.h **** 
 503:Drivers/CMSIS/Include/core_cm3.h **** #define SCB_CCR_USERSETMPEND_Pos            1U                                            /*!< SCB 
 504:Drivers/CMSIS/Include/core_cm3.h **** #define SCB_CCR_USERSETMPEND_Msk           (1UL << SCB_CCR_USERSETMPEND_Pos)              /*!< SCB 
 505:Drivers/CMSIS/Include/core_cm3.h **** 
 506:Drivers/CMSIS/Include/core_cm3.h **** #define SCB_CCR_NONBASETHRDENA_Pos          0U                                            /*!< SCB 
 507:Drivers/CMSIS/Include/core_cm3.h **** #define SCB_CCR_NONBASETHRDENA_Msk         (1UL /*<< SCB_CCR_NONBASETHRDENA_Pos*/)        /*!< SCB 
 508:Drivers/CMSIS/Include/core_cm3.h **** 
 509:Drivers/CMSIS/Include/core_cm3.h **** /* SCB System Handler Control and State Register Definitions */
 510:Drivers/CMSIS/Include/core_cm3.h **** #define SCB_SHCSR_USGFAULTENA_Pos          18U                                            /*!< SCB 
 511:Drivers/CMSIS/Include/core_cm3.h **** #define SCB_SHCSR_USGFAULTENA_Msk          (1UL << SCB_SHCSR_USGFAULTENA_Pos)             /*!< SCB 
 512:Drivers/CMSIS/Include/core_cm3.h **** 
 513:Drivers/CMSIS/Include/core_cm3.h **** #define SCB_SHCSR_BUSFAULTENA_Pos          17U                                            /*!< SCB 
 514:Drivers/CMSIS/Include/core_cm3.h **** #define SCB_SHCSR_BUSFAULTENA_Msk          (1UL << SCB_SHCSR_BUSFAULTENA_Pos)             /*!< SCB 
 515:Drivers/CMSIS/Include/core_cm3.h **** 
 516:Drivers/CMSIS/Include/core_cm3.h **** #define SCB_SHCSR_MEMFAULTENA_Pos          16U                                            /*!< SCB 
 517:Drivers/CMSIS/Include/core_cm3.h **** #define SCB_SHCSR_MEMFAULTENA_Msk          (1UL << SCB_SHCSR_MEMFAULTENA_Pos)             /*!< SCB 
 518:Drivers/CMSIS/Include/core_cm3.h **** 
 519:Drivers/CMSIS/Include/core_cm3.h **** #define SCB_SHCSR_SVCALLPENDED_Pos         15U                                            /*!< SCB 
 520:Drivers/CMSIS/Include/core_cm3.h **** #define SCB_SHCSR_SVCALLPENDED_Msk         (1UL << SCB_SHCSR_SVCALLPENDED_Pos)            /*!< SCB 
 521:Drivers/CMSIS/Include/core_cm3.h **** 
 522:Drivers/CMSIS/Include/core_cm3.h **** #define SCB_SHCSR_BUSFAULTPENDED_Pos       14U                                            /*!< SCB 
 523:Drivers/CMSIS/Include/core_cm3.h **** #define SCB_SHCSR_BUSFAULTPENDED_Msk       (1UL << SCB_SHCSR_BUSFAULTPENDED_Pos)          /*!< SCB 
 524:Drivers/CMSIS/Include/core_cm3.h **** 
 525:Drivers/CMSIS/Include/core_cm3.h **** #define SCB_SHCSR_MEMFAULTPENDED_Pos       13U                                            /*!< SCB 
 526:Drivers/CMSIS/Include/core_cm3.h **** #define SCB_SHCSR_MEMFAULTPENDED_Msk       (1UL << SCB_SHCSR_MEMFAULTPENDED_Pos)          /*!< SCB 
 527:Drivers/CMSIS/Include/core_cm3.h **** 
 528:Drivers/CMSIS/Include/core_cm3.h **** #define SCB_SHCSR_USGFAULTPENDED_Pos       12U                                            /*!< SCB 
 529:Drivers/CMSIS/Include/core_cm3.h **** #define SCB_SHCSR_USGFAULTPENDED_Msk       (1UL << SCB_SHCSR_USGFAULTPENDED_Pos)          /*!< SCB 
 530:Drivers/CMSIS/Include/core_cm3.h **** 
 531:Drivers/CMSIS/Include/core_cm3.h **** #define SCB_SHCSR_SYSTICKACT_Pos           11U                                            /*!< SCB 
 532:Drivers/CMSIS/Include/core_cm3.h **** #define SCB_SHCSR_SYSTICKACT_Msk           (1UL << SCB_SHCSR_SYSTICKACT_Pos)              /*!< SCB 
 533:Drivers/CMSIS/Include/core_cm3.h **** 
 534:Drivers/CMSIS/Include/core_cm3.h **** #define SCB_SHCSR_PENDSVACT_Pos            10U                                            /*!< SCB 
 535:Drivers/CMSIS/Include/core_cm3.h **** #define SCB_SHCSR_PENDSVACT_Msk            (1UL << SCB_SHCSR_PENDSVACT_Pos)               /*!< SCB 
 536:Drivers/CMSIS/Include/core_cm3.h **** 
 537:Drivers/CMSIS/Include/core_cm3.h **** #define SCB_SHCSR_MONITORACT_Pos            8U                                            /*!< SCB 
 538:Drivers/CMSIS/Include/core_cm3.h **** #define SCB_SHCSR_MONITORACT_Msk           (1UL << SCB_SHCSR_MONITORACT_Pos)              /*!< SCB 
 539:Drivers/CMSIS/Include/core_cm3.h **** 
 540:Drivers/CMSIS/Include/core_cm3.h **** #define SCB_SHCSR_SVCALLACT_Pos             7U                                            /*!< SCB 
ARM GAS  C:\Users\Vento\AppData\Local\Temp\ccMWL8p6.s 			page 51


 541:Drivers/CMSIS/Include/core_cm3.h **** #define SCB_SHCSR_SVCALLACT_Msk            (1UL << SCB_SHCSR_SVCALLACT_Pos)               /*!< SCB 
 542:Drivers/CMSIS/Include/core_cm3.h **** 
 543:Drivers/CMSIS/Include/core_cm3.h **** #define SCB_SHCSR_USGFAULTACT_Pos           3U                                            /*!< SCB 
 544:Drivers/CMSIS/Include/core_cm3.h **** #define SCB_SHCSR_USGFAULTACT_Msk          (1UL << SCB_SHCSR_USGFAULTACT_Pos)             /*!< SCB 
 545:Drivers/CMSIS/Include/core_cm3.h **** 
 546:Drivers/CMSIS/Include/core_cm3.h **** #define SCB_SHCSR_BUSFAULTACT_Pos           1U                                            /*!< SCB 
 547:Drivers/CMSIS/Include/core_cm3.h **** #define SCB_SHCSR_BUSFAULTACT_Msk          (1UL << SCB_SHCSR_BUSFAULTACT_Pos)             /*!< SCB 
 548:Drivers/CMSIS/Include/core_cm3.h **** 
 549:Drivers/CMSIS/Include/core_cm3.h **** #define SCB_SHCSR_MEMFAULTACT_Pos           0U                                            /*!< SCB 
 550:Drivers/CMSIS/Include/core_cm3.h **** #define SCB_SHCSR_MEMFAULTACT_Msk          (1UL /*<< SCB_SHCSR_MEMFAULTACT_Pos*/)         /*!< SCB 
 551:Drivers/CMSIS/Include/core_cm3.h **** 
 552:Drivers/CMSIS/Include/core_cm3.h **** /* SCB Configurable Fault Status Register Definitions */
 553:Drivers/CMSIS/Include/core_cm3.h **** #define SCB_CFSR_USGFAULTSR_Pos            16U                                            /*!< SCB 
 554:Drivers/CMSIS/Include/core_cm3.h **** #define SCB_CFSR_USGFAULTSR_Msk            (0xFFFFUL << SCB_CFSR_USGFAULTSR_Pos)          /*!< SCB 
 555:Drivers/CMSIS/Include/core_cm3.h **** 
 556:Drivers/CMSIS/Include/core_cm3.h **** #define SCB_CFSR_BUSFAULTSR_Pos             8U                                            /*!< SCB 
 557:Drivers/CMSIS/Include/core_cm3.h **** #define SCB_CFSR_BUSFAULTSR_Msk            (0xFFUL << SCB_CFSR_BUSFAULTSR_Pos)            /*!< SCB 
 558:Drivers/CMSIS/Include/core_cm3.h **** 
 559:Drivers/CMSIS/Include/core_cm3.h **** #define SCB_CFSR_MEMFAULTSR_Pos             0U                                            /*!< SCB 
 560:Drivers/CMSIS/Include/core_cm3.h **** #define SCB_CFSR_MEMFAULTSR_Msk            (0xFFUL /*<< SCB_CFSR_MEMFAULTSR_Pos*/)        /*!< SCB 
 561:Drivers/CMSIS/Include/core_cm3.h **** 
 562:Drivers/CMSIS/Include/core_cm3.h **** /* MemManage Fault Status Register (part of SCB Configurable Fault Status Register) */
 563:Drivers/CMSIS/Include/core_cm3.h **** #define SCB_CFSR_MMARVALID_Pos             (SCB_SHCSR_MEMFAULTACT_Pos + 7U)               /*!< SCB 
 564:Drivers/CMSIS/Include/core_cm3.h **** #define SCB_CFSR_MMARVALID_Msk             (1UL << SCB_CFSR_MMARVALID_Pos)                /*!< SCB 
 565:Drivers/CMSIS/Include/core_cm3.h **** 
 566:Drivers/CMSIS/Include/core_cm3.h **** #define SCB_CFSR_MSTKERR_Pos               (SCB_SHCSR_MEMFAULTACT_Pos + 4U)               /*!< SCB 
 567:Drivers/CMSIS/Include/core_cm3.h **** #define SCB_CFSR_MSTKERR_Msk               (1UL << SCB_CFSR_MSTKERR_Pos)                  /*!< SCB 
 568:Drivers/CMSIS/Include/core_cm3.h **** 
 569:Drivers/CMSIS/Include/core_cm3.h **** #define SCB_CFSR_MUNSTKERR_Pos             (SCB_SHCSR_MEMFAULTACT_Pos + 3U)               /*!< SCB 
 570:Drivers/CMSIS/Include/core_cm3.h **** #define SCB_CFSR_MUNSTKERR_Msk             (1UL << SCB_CFSR_MUNSTKERR_Pos)                /*!< SCB 
 571:Drivers/CMSIS/Include/core_cm3.h **** 
 572:Drivers/CMSIS/Include/core_cm3.h **** #define SCB_CFSR_DACCVIOL_Pos              (SCB_SHCSR_MEMFAULTACT_Pos + 1U)               /*!< SCB 
 573:Drivers/CMSIS/Include/core_cm3.h **** #define SCB_CFSR_DACCVIOL_Msk              (1UL << SCB_CFSR_DACCVIOL_Pos)                 /*!< SCB 
 574:Drivers/CMSIS/Include/core_cm3.h **** 
 575:Drivers/CMSIS/Include/core_cm3.h **** #define SCB_CFSR_IACCVIOL_Pos              (SCB_SHCSR_MEMFAULTACT_Pos + 0U)               /*!< SCB 
 576:Drivers/CMSIS/Include/core_cm3.h **** #define SCB_CFSR_IACCVIOL_Msk              (1UL /*<< SCB_CFSR_IACCVIOL_Pos*/)             /*!< SCB 
 577:Drivers/CMSIS/Include/core_cm3.h **** 
 578:Drivers/CMSIS/Include/core_cm3.h **** /* BusFault Status Register (part of SCB Configurable Fault Status Register) */
 579:Drivers/CMSIS/Include/core_cm3.h **** #define SCB_CFSR_BFARVALID_Pos            (SCB_CFSR_BUSFAULTSR_Pos + 7U)                  /*!< SCB 
 580:Drivers/CMSIS/Include/core_cm3.h **** #define SCB_CFSR_BFARVALID_Msk            (1UL << SCB_CFSR_BFARVALID_Pos)                 /*!< SCB 
 581:Drivers/CMSIS/Include/core_cm3.h **** 
 582:Drivers/CMSIS/Include/core_cm3.h **** #define SCB_CFSR_STKERR_Pos               (SCB_CFSR_BUSFAULTSR_Pos + 4U)                  /*!< SCB 
 583:Drivers/CMSIS/Include/core_cm3.h **** #define SCB_CFSR_STKERR_Msk               (1UL << SCB_CFSR_STKERR_Pos)                    /*!< SCB 
 584:Drivers/CMSIS/Include/core_cm3.h **** 
 585:Drivers/CMSIS/Include/core_cm3.h **** #define SCB_CFSR_UNSTKERR_Pos             (SCB_CFSR_BUSFAULTSR_Pos + 3U)                  /*!< SCB 
 586:Drivers/CMSIS/Include/core_cm3.h **** #define SCB_CFSR_UNSTKERR_Msk             (1UL << SCB_CFSR_UNSTKERR_Pos)                  /*!< SCB 
 587:Drivers/CMSIS/Include/core_cm3.h **** 
 588:Drivers/CMSIS/Include/core_cm3.h **** #define SCB_CFSR_IMPRECISERR_Pos          (SCB_CFSR_BUSFAULTSR_Pos + 2U)                  /*!< SCB 
 589:Drivers/CMSIS/Include/core_cm3.h **** #define SCB_CFSR_IMPRECISERR_Msk          (1UL << SCB_CFSR_IMPRECISERR_Pos)               /*!< SCB 
 590:Drivers/CMSIS/Include/core_cm3.h **** 
 591:Drivers/CMSIS/Include/core_cm3.h **** #define SCB_CFSR_PRECISERR_Pos            (SCB_CFSR_BUSFAULTSR_Pos + 1U)                  /*!< SCB 
 592:Drivers/CMSIS/Include/core_cm3.h **** #define SCB_CFSR_PRECISERR_Msk            (1UL << SCB_CFSR_PRECISERR_Pos)                 /*!< SCB 
 593:Drivers/CMSIS/Include/core_cm3.h **** 
 594:Drivers/CMSIS/Include/core_cm3.h **** #define SCB_CFSR_IBUSERR_Pos              (SCB_CFSR_BUSFAULTSR_Pos + 0U)                  /*!< SCB 
 595:Drivers/CMSIS/Include/core_cm3.h **** #define SCB_CFSR_IBUSERR_Msk              (1UL << SCB_CFSR_IBUSERR_Pos)                   /*!< SCB 
 596:Drivers/CMSIS/Include/core_cm3.h **** 
 597:Drivers/CMSIS/Include/core_cm3.h **** /* UsageFault Status Register (part of SCB Configurable Fault Status Register) */
ARM GAS  C:\Users\Vento\AppData\Local\Temp\ccMWL8p6.s 			page 52


 598:Drivers/CMSIS/Include/core_cm3.h **** #define SCB_CFSR_DIVBYZERO_Pos            (SCB_CFSR_USGFAULTSR_Pos + 9U)                  /*!< SCB 
 599:Drivers/CMSIS/Include/core_cm3.h **** #define SCB_CFSR_DIVBYZERO_Msk            (1UL << SCB_CFSR_DIVBYZERO_Pos)                 /*!< SCB 
 600:Drivers/CMSIS/Include/core_cm3.h **** 
 601:Drivers/CMSIS/Include/core_cm3.h **** #define SCB_CFSR_UNALIGNED_Pos            (SCB_CFSR_USGFAULTSR_Pos + 8U)                  /*!< SCB 
 602:Drivers/CMSIS/Include/core_cm3.h **** #define SCB_CFSR_UNALIGNED_Msk            (1UL << SCB_CFSR_UNALIGNED_Pos)                 /*!< SCB 
 603:Drivers/CMSIS/Include/core_cm3.h **** 
 604:Drivers/CMSIS/Include/core_cm3.h **** #define SCB_CFSR_NOCP_Pos                 (SCB_CFSR_USGFAULTSR_Pos + 3U)                  /*!< SCB 
 605:Drivers/CMSIS/Include/core_cm3.h **** #define SCB_CFSR_NOCP_Msk                 (1UL << SCB_CFSR_NOCP_Pos)                      /*!< SCB 
 606:Drivers/CMSIS/Include/core_cm3.h **** 
 607:Drivers/CMSIS/Include/core_cm3.h **** #define SCB_CFSR_INVPC_Pos                (SCB_CFSR_USGFAULTSR_Pos + 2U)                  /*!< SCB 
 608:Drivers/CMSIS/Include/core_cm3.h **** #define SCB_CFSR_INVPC_Msk                (1UL << SCB_CFSR_INVPC_Pos)                     /*!< SCB 
 609:Drivers/CMSIS/Include/core_cm3.h **** 
 610:Drivers/CMSIS/Include/core_cm3.h **** #define SCB_CFSR_INVSTATE_Pos             (SCB_CFSR_USGFAULTSR_Pos + 1U)                  /*!< SCB 
 611:Drivers/CMSIS/Include/core_cm3.h **** #define SCB_CFSR_INVSTATE_Msk             (1UL << SCB_CFSR_INVSTATE_Pos)                  /*!< SCB 
 612:Drivers/CMSIS/Include/core_cm3.h **** 
 613:Drivers/CMSIS/Include/core_cm3.h **** #define SCB_CFSR_UNDEFINSTR_Pos           (SCB_CFSR_USGFAULTSR_Pos + 0U)                  /*!< SCB 
 614:Drivers/CMSIS/Include/core_cm3.h **** #define SCB_CFSR_UNDEFINSTR_Msk           (1UL << SCB_CFSR_UNDEFINSTR_Pos)                /*!< SCB 
 615:Drivers/CMSIS/Include/core_cm3.h **** 
 616:Drivers/CMSIS/Include/core_cm3.h **** /* SCB Hard Fault Status Register Definitions */
 617:Drivers/CMSIS/Include/core_cm3.h **** #define SCB_HFSR_DEBUGEVT_Pos              31U                                            /*!< SCB 
 618:Drivers/CMSIS/Include/core_cm3.h **** #define SCB_HFSR_DEBUGEVT_Msk              (1UL << SCB_HFSR_DEBUGEVT_Pos)                 /*!< SCB 
 619:Drivers/CMSIS/Include/core_cm3.h **** 
 620:Drivers/CMSIS/Include/core_cm3.h **** #define SCB_HFSR_FORCED_Pos                30U                                            /*!< SCB 
 621:Drivers/CMSIS/Include/core_cm3.h **** #define SCB_HFSR_FORCED_Msk                (1UL << SCB_HFSR_FORCED_Pos)                   /*!< SCB 
 622:Drivers/CMSIS/Include/core_cm3.h **** 
 623:Drivers/CMSIS/Include/core_cm3.h **** #define SCB_HFSR_VECTTBL_Pos                1U                                            /*!< SCB 
 624:Drivers/CMSIS/Include/core_cm3.h **** #define SCB_HFSR_VECTTBL_Msk               (1UL << SCB_HFSR_VECTTBL_Pos)                  /*!< SCB 
 625:Drivers/CMSIS/Include/core_cm3.h **** 
 626:Drivers/CMSIS/Include/core_cm3.h **** /* SCB Debug Fault Status Register Definitions */
 627:Drivers/CMSIS/Include/core_cm3.h **** #define SCB_DFSR_EXTERNAL_Pos               4U                                            /*!< SCB 
 628:Drivers/CMSIS/Include/core_cm3.h **** #define SCB_DFSR_EXTERNAL_Msk              (1UL << SCB_DFSR_EXTERNAL_Pos)                 /*!< SCB 
 629:Drivers/CMSIS/Include/core_cm3.h **** 
 630:Drivers/CMSIS/Include/core_cm3.h **** #define SCB_DFSR_VCATCH_Pos                 3U                                            /*!< SCB 
 631:Drivers/CMSIS/Include/core_cm3.h **** #define SCB_DFSR_VCATCH_Msk                (1UL << SCB_DFSR_VCATCH_Pos)                   /*!< SCB 
 632:Drivers/CMSIS/Include/core_cm3.h **** 
 633:Drivers/CMSIS/Include/core_cm3.h **** #define SCB_DFSR_DWTTRAP_Pos                2U                                            /*!< SCB 
 634:Drivers/CMSIS/Include/core_cm3.h **** #define SCB_DFSR_DWTTRAP_Msk               (1UL << SCB_DFSR_DWTTRAP_Pos)                  /*!< SCB 
 635:Drivers/CMSIS/Include/core_cm3.h **** 
 636:Drivers/CMSIS/Include/core_cm3.h **** #define SCB_DFSR_BKPT_Pos                   1U                                            /*!< SCB 
 637:Drivers/CMSIS/Include/core_cm3.h **** #define SCB_DFSR_BKPT_Msk                  (1UL << SCB_DFSR_BKPT_Pos)                     /*!< SCB 
 638:Drivers/CMSIS/Include/core_cm3.h **** 
 639:Drivers/CMSIS/Include/core_cm3.h **** #define SCB_DFSR_HALTED_Pos                 0U                                            /*!< SCB 
 640:Drivers/CMSIS/Include/core_cm3.h **** #define SCB_DFSR_HALTED_Msk                (1UL /*<< SCB_DFSR_HALTED_Pos*/)               /*!< SCB 
 641:Drivers/CMSIS/Include/core_cm3.h **** 
 642:Drivers/CMSIS/Include/core_cm3.h **** /*@} end of group CMSIS_SCB */
 643:Drivers/CMSIS/Include/core_cm3.h **** 
 644:Drivers/CMSIS/Include/core_cm3.h **** 
 645:Drivers/CMSIS/Include/core_cm3.h **** /**
 646:Drivers/CMSIS/Include/core_cm3.h ****   \ingroup  CMSIS_core_register
 647:Drivers/CMSIS/Include/core_cm3.h ****   \defgroup CMSIS_SCnSCB System Controls not in SCB (SCnSCB)
 648:Drivers/CMSIS/Include/core_cm3.h ****   \brief    Type definitions for the System Control and ID Register not in the SCB
 649:Drivers/CMSIS/Include/core_cm3.h ****   @{
 650:Drivers/CMSIS/Include/core_cm3.h ****  */
 651:Drivers/CMSIS/Include/core_cm3.h **** 
 652:Drivers/CMSIS/Include/core_cm3.h **** /**
 653:Drivers/CMSIS/Include/core_cm3.h ****   \brief  Structure type to access the System Control and ID Register not in the SCB.
 654:Drivers/CMSIS/Include/core_cm3.h ****  */
ARM GAS  C:\Users\Vento\AppData\Local\Temp\ccMWL8p6.s 			page 53


 655:Drivers/CMSIS/Include/core_cm3.h **** typedef struct
 656:Drivers/CMSIS/Include/core_cm3.h **** {
 657:Drivers/CMSIS/Include/core_cm3.h ****         uint32_t RESERVED0[1U];
 658:Drivers/CMSIS/Include/core_cm3.h ****   __IM  uint32_t ICTR;                   /*!< Offset: 0x004 (R/ )  Interrupt Controller Type Regist
 659:Drivers/CMSIS/Include/core_cm3.h **** #if defined (__CM3_REV) && (__CM3_REV >= 0x200U)
 660:Drivers/CMSIS/Include/core_cm3.h ****   __IOM uint32_t ACTLR;                  /*!< Offset: 0x008 (R/W)  Auxiliary Control Register */
 661:Drivers/CMSIS/Include/core_cm3.h **** #else
 662:Drivers/CMSIS/Include/core_cm3.h ****         uint32_t RESERVED1[1U];
 663:Drivers/CMSIS/Include/core_cm3.h **** #endif
 664:Drivers/CMSIS/Include/core_cm3.h **** } SCnSCB_Type;
 665:Drivers/CMSIS/Include/core_cm3.h **** 
 666:Drivers/CMSIS/Include/core_cm3.h **** /* Interrupt Controller Type Register Definitions */
 667:Drivers/CMSIS/Include/core_cm3.h **** #define SCnSCB_ICTR_INTLINESNUM_Pos         0U                                         /*!< ICTR: I
 668:Drivers/CMSIS/Include/core_cm3.h **** #define SCnSCB_ICTR_INTLINESNUM_Msk        (0xFUL /*<< SCnSCB_ICTR_INTLINESNUM_Pos*/)  /*!< ICTR: I
 669:Drivers/CMSIS/Include/core_cm3.h **** 
 670:Drivers/CMSIS/Include/core_cm3.h **** /* Auxiliary Control Register Definitions */
 671:Drivers/CMSIS/Include/core_cm3.h **** 
 672:Drivers/CMSIS/Include/core_cm3.h **** #define SCnSCB_ACTLR_DISFOLD_Pos            2U                                         /*!< ACTLR: 
 673:Drivers/CMSIS/Include/core_cm3.h **** #define SCnSCB_ACTLR_DISFOLD_Msk           (1UL << SCnSCB_ACTLR_DISFOLD_Pos)           /*!< ACTLR: 
 674:Drivers/CMSIS/Include/core_cm3.h **** 
 675:Drivers/CMSIS/Include/core_cm3.h **** #define SCnSCB_ACTLR_DISDEFWBUF_Pos         1U                                         /*!< ACTLR: 
 676:Drivers/CMSIS/Include/core_cm3.h **** #define SCnSCB_ACTLR_DISDEFWBUF_Msk        (1UL << SCnSCB_ACTLR_DISDEFWBUF_Pos)        /*!< ACTLR: 
 677:Drivers/CMSIS/Include/core_cm3.h **** 
 678:Drivers/CMSIS/Include/core_cm3.h **** #define SCnSCB_ACTLR_DISMCYCINT_Pos         0U                                         /*!< ACTLR: 
 679:Drivers/CMSIS/Include/core_cm3.h **** #define SCnSCB_ACTLR_DISMCYCINT_Msk        (1UL /*<< SCnSCB_ACTLR_DISMCYCINT_Pos*/)    /*!< ACTLR: 
 680:Drivers/CMSIS/Include/core_cm3.h **** 
 681:Drivers/CMSIS/Include/core_cm3.h **** /*@} end of group CMSIS_SCnotSCB */
 682:Drivers/CMSIS/Include/core_cm3.h **** 
 683:Drivers/CMSIS/Include/core_cm3.h **** 
 684:Drivers/CMSIS/Include/core_cm3.h **** /**
 685:Drivers/CMSIS/Include/core_cm3.h ****   \ingroup  CMSIS_core_register
 686:Drivers/CMSIS/Include/core_cm3.h ****   \defgroup CMSIS_SysTick     System Tick Timer (SysTick)
 687:Drivers/CMSIS/Include/core_cm3.h ****   \brief    Type definitions for the System Timer Registers.
 688:Drivers/CMSIS/Include/core_cm3.h ****   @{
 689:Drivers/CMSIS/Include/core_cm3.h ****  */
 690:Drivers/CMSIS/Include/core_cm3.h **** 
 691:Drivers/CMSIS/Include/core_cm3.h **** /**
 692:Drivers/CMSIS/Include/core_cm3.h ****   \brief  Structure type to access the System Timer (SysTick).
 693:Drivers/CMSIS/Include/core_cm3.h ****  */
 694:Drivers/CMSIS/Include/core_cm3.h **** typedef struct
 695:Drivers/CMSIS/Include/core_cm3.h **** {
 696:Drivers/CMSIS/Include/core_cm3.h ****   __IOM uint32_t CTRL;                   /*!< Offset: 0x000 (R/W)  SysTick Control and Status Regis
 697:Drivers/CMSIS/Include/core_cm3.h ****   __IOM uint32_t LOAD;                   /*!< Offset: 0x004 (R/W)  SysTick Reload Value Register */
 698:Drivers/CMSIS/Include/core_cm3.h ****   __IOM uint32_t VAL;                    /*!< Offset: 0x008 (R/W)  SysTick Current Value Register *
 699:Drivers/CMSIS/Include/core_cm3.h ****   __IM  uint32_t CALIB;                  /*!< Offset: 0x00C (R/ )  SysTick Calibration Register */
 700:Drivers/CMSIS/Include/core_cm3.h **** } SysTick_Type;
 701:Drivers/CMSIS/Include/core_cm3.h **** 
 702:Drivers/CMSIS/Include/core_cm3.h **** /* SysTick Control / Status Register Definitions */
 703:Drivers/CMSIS/Include/core_cm3.h **** #define SysTick_CTRL_COUNTFLAG_Pos         16U                                            /*!< SysT
 704:Drivers/CMSIS/Include/core_cm3.h **** #define SysTick_CTRL_COUNTFLAG_Msk         (1UL << SysTick_CTRL_COUNTFLAG_Pos)            /*!< SysT
 705:Drivers/CMSIS/Include/core_cm3.h **** 
 706:Drivers/CMSIS/Include/core_cm3.h **** #define SysTick_CTRL_CLKSOURCE_Pos          2U                                            /*!< SysT
 707:Drivers/CMSIS/Include/core_cm3.h **** #define SysTick_CTRL_CLKSOURCE_Msk         (1UL << SysTick_CTRL_CLKSOURCE_Pos)            /*!< SysT
 708:Drivers/CMSIS/Include/core_cm3.h **** 
 709:Drivers/CMSIS/Include/core_cm3.h **** #define SysTick_CTRL_TICKINT_Pos            1U                                            /*!< SysT
 710:Drivers/CMSIS/Include/core_cm3.h **** #define SysTick_CTRL_TICKINT_Msk           (1UL << SysTick_CTRL_TICKINT_Pos)              /*!< SysT
 711:Drivers/CMSIS/Include/core_cm3.h **** 
ARM GAS  C:\Users\Vento\AppData\Local\Temp\ccMWL8p6.s 			page 54


 712:Drivers/CMSIS/Include/core_cm3.h **** #define SysTick_CTRL_ENABLE_Pos             0U                                            /*!< SysT
 713:Drivers/CMSIS/Include/core_cm3.h **** #define SysTick_CTRL_ENABLE_Msk            (1UL /*<< SysTick_CTRL_ENABLE_Pos*/)           /*!< SysT
 714:Drivers/CMSIS/Include/core_cm3.h **** 
 715:Drivers/CMSIS/Include/core_cm3.h **** /* SysTick Reload Register Definitions */
 716:Drivers/CMSIS/Include/core_cm3.h **** #define SysTick_LOAD_RELOAD_Pos             0U                                            /*!< SysT
 717:Drivers/CMSIS/Include/core_cm3.h **** #define SysTick_LOAD_RELOAD_Msk            (0xFFFFFFUL /*<< SysTick_LOAD_RELOAD_Pos*/)    /*!< SysT
 718:Drivers/CMSIS/Include/core_cm3.h **** 
 719:Drivers/CMSIS/Include/core_cm3.h **** /* SysTick Current Register Definitions */
 720:Drivers/CMSIS/Include/core_cm3.h **** #define SysTick_VAL_CURRENT_Pos             0U                                            /*!< SysT
 721:Drivers/CMSIS/Include/core_cm3.h **** #define SysTick_VAL_CURRENT_Msk            (0xFFFFFFUL /*<< SysTick_VAL_CURRENT_Pos*/)    /*!< SysT
 722:Drivers/CMSIS/Include/core_cm3.h **** 
 723:Drivers/CMSIS/Include/core_cm3.h **** /* SysTick Calibration Register Definitions */
 724:Drivers/CMSIS/Include/core_cm3.h **** #define SysTick_CALIB_NOREF_Pos            31U                                            /*!< SysT
 725:Drivers/CMSIS/Include/core_cm3.h **** #define SysTick_CALIB_NOREF_Msk            (1UL << SysTick_CALIB_NOREF_Pos)               /*!< SysT
 726:Drivers/CMSIS/Include/core_cm3.h **** 
 727:Drivers/CMSIS/Include/core_cm3.h **** #define SysTick_CALIB_SKEW_Pos             30U                                            /*!< SysT
 728:Drivers/CMSIS/Include/core_cm3.h **** #define SysTick_CALIB_SKEW_Msk             (1UL << SysTick_CALIB_SKEW_Pos)                /*!< SysT
 729:Drivers/CMSIS/Include/core_cm3.h **** 
 730:Drivers/CMSIS/Include/core_cm3.h **** #define SysTick_CALIB_TENMS_Pos             0U                                            /*!< SysT
 731:Drivers/CMSIS/Include/core_cm3.h **** #define SysTick_CALIB_TENMS_Msk            (0xFFFFFFUL /*<< SysTick_CALIB_TENMS_Pos*/)    /*!< SysT
 732:Drivers/CMSIS/Include/core_cm3.h **** 
 733:Drivers/CMSIS/Include/core_cm3.h **** /*@} end of group CMSIS_SysTick */
 734:Drivers/CMSIS/Include/core_cm3.h **** 
 735:Drivers/CMSIS/Include/core_cm3.h **** 
 736:Drivers/CMSIS/Include/core_cm3.h **** /**
 737:Drivers/CMSIS/Include/core_cm3.h ****   \ingroup  CMSIS_core_register
 738:Drivers/CMSIS/Include/core_cm3.h ****   \defgroup CMSIS_ITM     Instrumentation Trace Macrocell (ITM)
 739:Drivers/CMSIS/Include/core_cm3.h ****   \brief    Type definitions for the Instrumentation Trace Macrocell (ITM)
 740:Drivers/CMSIS/Include/core_cm3.h ****   @{
 741:Drivers/CMSIS/Include/core_cm3.h ****  */
 742:Drivers/CMSIS/Include/core_cm3.h **** 
 743:Drivers/CMSIS/Include/core_cm3.h **** /**
 744:Drivers/CMSIS/Include/core_cm3.h ****   \brief  Structure type to access the Instrumentation Trace Macrocell Register (ITM).
 745:Drivers/CMSIS/Include/core_cm3.h ****  */
 746:Drivers/CMSIS/Include/core_cm3.h **** typedef struct
 747:Drivers/CMSIS/Include/core_cm3.h **** {
 748:Drivers/CMSIS/Include/core_cm3.h ****   __OM  union
 749:Drivers/CMSIS/Include/core_cm3.h ****   {
 750:Drivers/CMSIS/Include/core_cm3.h ****     __OM  uint8_t    u8;                 /*!< Offset: 0x000 ( /W)  ITM Stimulus Port 8-bit */
 751:Drivers/CMSIS/Include/core_cm3.h ****     __OM  uint16_t   u16;                /*!< Offset: 0x000 ( /W)  ITM Stimulus Port 16-bit */
 752:Drivers/CMSIS/Include/core_cm3.h ****     __OM  uint32_t   u32;                /*!< Offset: 0x000 ( /W)  ITM Stimulus Port 32-bit */
 753:Drivers/CMSIS/Include/core_cm3.h ****   }  PORT [32U];                         /*!< Offset: 0x000 ( /W)  ITM Stimulus Port Registers */
 754:Drivers/CMSIS/Include/core_cm3.h ****         uint32_t RESERVED0[864U];
 755:Drivers/CMSIS/Include/core_cm3.h ****   __IOM uint32_t TER;                    /*!< Offset: 0xE00 (R/W)  ITM Trace Enable Register */
 756:Drivers/CMSIS/Include/core_cm3.h ****         uint32_t RESERVED1[15U];
 757:Drivers/CMSIS/Include/core_cm3.h ****   __IOM uint32_t TPR;                    /*!< Offset: 0xE40 (R/W)  ITM Trace Privilege Register */
 758:Drivers/CMSIS/Include/core_cm3.h ****         uint32_t RESERVED2[15U];
 759:Drivers/CMSIS/Include/core_cm3.h ****   __IOM uint32_t TCR;                    /*!< Offset: 0xE80 (R/W)  ITM Trace Control Register */
 760:Drivers/CMSIS/Include/core_cm3.h ****         uint32_t RESERVED3[29U];
 761:Drivers/CMSIS/Include/core_cm3.h ****   __OM  uint32_t IWR;                    /*!< Offset: 0xEF8 ( /W)  ITM Integration Write Register *
 762:Drivers/CMSIS/Include/core_cm3.h ****   __IM  uint32_t IRR;                    /*!< Offset: 0xEFC (R/ )  ITM Integration Read Register */
 763:Drivers/CMSIS/Include/core_cm3.h ****   __IOM uint32_t IMCR;                   /*!< Offset: 0xF00 (R/W)  ITM Integration Mode Control Reg
 764:Drivers/CMSIS/Include/core_cm3.h ****         uint32_t RESERVED4[43U];
 765:Drivers/CMSIS/Include/core_cm3.h ****   __OM  uint32_t LAR;                    /*!< Offset: 0xFB0 ( /W)  ITM Lock Access Register */
 766:Drivers/CMSIS/Include/core_cm3.h ****   __IM  uint32_t LSR;                    /*!< Offset: 0xFB4 (R/ )  ITM Lock Status Register */
 767:Drivers/CMSIS/Include/core_cm3.h ****         uint32_t RESERVED5[6U];
 768:Drivers/CMSIS/Include/core_cm3.h ****   __IM  uint32_t PID4;                   /*!< Offset: 0xFD0 (R/ )  ITM Peripheral Identification Re
ARM GAS  C:\Users\Vento\AppData\Local\Temp\ccMWL8p6.s 			page 55


 769:Drivers/CMSIS/Include/core_cm3.h ****   __IM  uint32_t PID5;                   /*!< Offset: 0xFD4 (R/ )  ITM Peripheral Identification Re
 770:Drivers/CMSIS/Include/core_cm3.h ****   __IM  uint32_t PID6;                   /*!< Offset: 0xFD8 (R/ )  ITM Peripheral Identification Re
 771:Drivers/CMSIS/Include/core_cm3.h ****   __IM  uint32_t PID7;                   /*!< Offset: 0xFDC (R/ )  ITM Peripheral Identification Re
 772:Drivers/CMSIS/Include/core_cm3.h ****   __IM  uint32_t PID0;                   /*!< Offset: 0xFE0 (R/ )  ITM Peripheral Identification Re
 773:Drivers/CMSIS/Include/core_cm3.h ****   __IM  uint32_t PID1;                   /*!< Offset: 0xFE4 (R/ )  ITM Peripheral Identification Re
 774:Drivers/CMSIS/Include/core_cm3.h ****   __IM  uint32_t PID2;                   /*!< Offset: 0xFE8 (R/ )  ITM Peripheral Identification Re
 775:Drivers/CMSIS/Include/core_cm3.h ****   __IM  uint32_t PID3;                   /*!< Offset: 0xFEC (R/ )  ITM Peripheral Identification Re
 776:Drivers/CMSIS/Include/core_cm3.h ****   __IM  uint32_t CID0;                   /*!< Offset: 0xFF0 (R/ )  ITM Component  Identification Re
 777:Drivers/CMSIS/Include/core_cm3.h ****   __IM  uint32_t CID1;                   /*!< Offset: 0xFF4 (R/ )  ITM Component  Identification Re
 778:Drivers/CMSIS/Include/core_cm3.h ****   __IM  uint32_t CID2;                   /*!< Offset: 0xFF8 (R/ )  ITM Component  Identification Re
 779:Drivers/CMSIS/Include/core_cm3.h ****   __IM  uint32_t CID3;                   /*!< Offset: 0xFFC (R/ )  ITM Component  Identification Re
 780:Drivers/CMSIS/Include/core_cm3.h **** } ITM_Type;
 781:Drivers/CMSIS/Include/core_cm3.h **** 
 782:Drivers/CMSIS/Include/core_cm3.h **** /* ITM Trace Privilege Register Definitions */
 783:Drivers/CMSIS/Include/core_cm3.h **** #define ITM_TPR_PRIVMASK_Pos                0U                                            /*!< ITM 
 784:Drivers/CMSIS/Include/core_cm3.h **** #define ITM_TPR_PRIVMASK_Msk               (0xFFFFFFFFUL /*<< ITM_TPR_PRIVMASK_Pos*/)     /*!< ITM 
 785:Drivers/CMSIS/Include/core_cm3.h **** 
 786:Drivers/CMSIS/Include/core_cm3.h **** /* ITM Trace Control Register Definitions */
 787:Drivers/CMSIS/Include/core_cm3.h **** #define ITM_TCR_BUSY_Pos                   23U                                            /*!< ITM 
 788:Drivers/CMSIS/Include/core_cm3.h **** #define ITM_TCR_BUSY_Msk                   (1UL << ITM_TCR_BUSY_Pos)                      /*!< ITM 
 789:Drivers/CMSIS/Include/core_cm3.h **** 
 790:Drivers/CMSIS/Include/core_cm3.h **** #define ITM_TCR_TraceBusID_Pos             16U                                            /*!< ITM 
 791:Drivers/CMSIS/Include/core_cm3.h **** #define ITM_TCR_TraceBusID_Msk             (0x7FUL << ITM_TCR_TraceBusID_Pos)             /*!< ITM 
 792:Drivers/CMSIS/Include/core_cm3.h **** 
 793:Drivers/CMSIS/Include/core_cm3.h **** #define ITM_TCR_GTSFREQ_Pos                10U                                            /*!< ITM 
 794:Drivers/CMSIS/Include/core_cm3.h **** #define ITM_TCR_GTSFREQ_Msk                (3UL << ITM_TCR_GTSFREQ_Pos)                   /*!< ITM 
 795:Drivers/CMSIS/Include/core_cm3.h **** 
 796:Drivers/CMSIS/Include/core_cm3.h **** #define ITM_TCR_TSPrescale_Pos              8U                                            /*!< ITM 
 797:Drivers/CMSIS/Include/core_cm3.h **** #define ITM_TCR_TSPrescale_Msk             (3UL << ITM_TCR_TSPrescale_Pos)                /*!< ITM 
 798:Drivers/CMSIS/Include/core_cm3.h **** 
 799:Drivers/CMSIS/Include/core_cm3.h **** #define ITM_TCR_SWOENA_Pos                  4U                                            /*!< ITM 
 800:Drivers/CMSIS/Include/core_cm3.h **** #define ITM_TCR_SWOENA_Msk                 (1UL << ITM_TCR_SWOENA_Pos)                    /*!< ITM 
 801:Drivers/CMSIS/Include/core_cm3.h **** 
 802:Drivers/CMSIS/Include/core_cm3.h **** #define ITM_TCR_DWTENA_Pos                  3U                                            /*!< ITM 
 803:Drivers/CMSIS/Include/core_cm3.h **** #define ITM_TCR_DWTENA_Msk                 (1UL << ITM_TCR_DWTENA_Pos)                    /*!< ITM 
 804:Drivers/CMSIS/Include/core_cm3.h **** 
 805:Drivers/CMSIS/Include/core_cm3.h **** #define ITM_TCR_SYNCENA_Pos                 2U                                            /*!< ITM 
 806:Drivers/CMSIS/Include/core_cm3.h **** #define ITM_TCR_SYNCENA_Msk                (1UL << ITM_TCR_SYNCENA_Pos)                   /*!< ITM 
 807:Drivers/CMSIS/Include/core_cm3.h **** 
 808:Drivers/CMSIS/Include/core_cm3.h **** #define ITM_TCR_TSENA_Pos                   1U                                            /*!< ITM 
 809:Drivers/CMSIS/Include/core_cm3.h **** #define ITM_TCR_TSENA_Msk                  (1UL << ITM_TCR_TSENA_Pos)                     /*!< ITM 
 810:Drivers/CMSIS/Include/core_cm3.h **** 
 811:Drivers/CMSIS/Include/core_cm3.h **** #define ITM_TCR_ITMENA_Pos                  0U                                            /*!< ITM 
 812:Drivers/CMSIS/Include/core_cm3.h **** #define ITM_TCR_ITMENA_Msk                 (1UL /*<< ITM_TCR_ITMENA_Pos*/)                /*!< ITM 
 813:Drivers/CMSIS/Include/core_cm3.h **** 
 814:Drivers/CMSIS/Include/core_cm3.h **** /* ITM Integration Write Register Definitions */
 815:Drivers/CMSIS/Include/core_cm3.h **** #define ITM_IWR_ATVALIDM_Pos                0U                                            /*!< ITM 
 816:Drivers/CMSIS/Include/core_cm3.h **** #define ITM_IWR_ATVALIDM_Msk               (1UL /*<< ITM_IWR_ATVALIDM_Pos*/)              /*!< ITM 
 817:Drivers/CMSIS/Include/core_cm3.h **** 
 818:Drivers/CMSIS/Include/core_cm3.h **** /* ITM Integration Read Register Definitions */
 819:Drivers/CMSIS/Include/core_cm3.h **** #define ITM_IRR_ATREADYM_Pos                0U                                            /*!< ITM 
 820:Drivers/CMSIS/Include/core_cm3.h **** #define ITM_IRR_ATREADYM_Msk               (1UL /*<< ITM_IRR_ATREADYM_Pos*/)              /*!< ITM 
 821:Drivers/CMSIS/Include/core_cm3.h **** 
 822:Drivers/CMSIS/Include/core_cm3.h **** /* ITM Integration Mode Control Register Definitions */
 823:Drivers/CMSIS/Include/core_cm3.h **** #define ITM_IMCR_INTEGRATION_Pos            0U                                            /*!< ITM 
 824:Drivers/CMSIS/Include/core_cm3.h **** #define ITM_IMCR_INTEGRATION_Msk           (1UL /*<< ITM_IMCR_INTEGRATION_Pos*/)          /*!< ITM 
 825:Drivers/CMSIS/Include/core_cm3.h **** 
ARM GAS  C:\Users\Vento\AppData\Local\Temp\ccMWL8p6.s 			page 56


 826:Drivers/CMSIS/Include/core_cm3.h **** /* ITM Lock Status Register Definitions */
 827:Drivers/CMSIS/Include/core_cm3.h **** #define ITM_LSR_ByteAcc_Pos                 2U                                            /*!< ITM 
 828:Drivers/CMSIS/Include/core_cm3.h **** #define ITM_LSR_ByteAcc_Msk                (1UL << ITM_LSR_ByteAcc_Pos)                   /*!< ITM 
 829:Drivers/CMSIS/Include/core_cm3.h **** 
 830:Drivers/CMSIS/Include/core_cm3.h **** #define ITM_LSR_Access_Pos                  1U                                            /*!< ITM 
 831:Drivers/CMSIS/Include/core_cm3.h **** #define ITM_LSR_Access_Msk                 (1UL << ITM_LSR_Access_Pos)                    /*!< ITM 
 832:Drivers/CMSIS/Include/core_cm3.h **** 
 833:Drivers/CMSIS/Include/core_cm3.h **** #define ITM_LSR_Present_Pos                 0U                                            /*!< ITM 
 834:Drivers/CMSIS/Include/core_cm3.h **** #define ITM_LSR_Present_Msk                (1UL /*<< ITM_LSR_Present_Pos*/)               /*!< ITM 
 835:Drivers/CMSIS/Include/core_cm3.h **** 
 836:Drivers/CMSIS/Include/core_cm3.h **** /*@}*/ /* end of group CMSIS_ITM */
 837:Drivers/CMSIS/Include/core_cm3.h **** 
 838:Drivers/CMSIS/Include/core_cm3.h **** 
 839:Drivers/CMSIS/Include/core_cm3.h **** /**
 840:Drivers/CMSIS/Include/core_cm3.h ****   \ingroup  CMSIS_core_register
 841:Drivers/CMSIS/Include/core_cm3.h ****   \defgroup CMSIS_DWT     Data Watchpoint and Trace (DWT)
 842:Drivers/CMSIS/Include/core_cm3.h ****   \brief    Type definitions for the Data Watchpoint and Trace (DWT)
 843:Drivers/CMSIS/Include/core_cm3.h ****   @{
 844:Drivers/CMSIS/Include/core_cm3.h ****  */
 845:Drivers/CMSIS/Include/core_cm3.h **** 
 846:Drivers/CMSIS/Include/core_cm3.h **** /**
 847:Drivers/CMSIS/Include/core_cm3.h ****   \brief  Structure type to access the Data Watchpoint and Trace Register (DWT).
 848:Drivers/CMSIS/Include/core_cm3.h ****  */
 849:Drivers/CMSIS/Include/core_cm3.h **** typedef struct
 850:Drivers/CMSIS/Include/core_cm3.h **** {
 851:Drivers/CMSIS/Include/core_cm3.h ****   __IOM uint32_t CTRL;                   /*!< Offset: 0x000 (R/W)  Control Register */
 852:Drivers/CMSIS/Include/core_cm3.h ****   __IOM uint32_t CYCCNT;                 /*!< Offset: 0x004 (R/W)  Cycle Count Register */
 853:Drivers/CMSIS/Include/core_cm3.h ****   __IOM uint32_t CPICNT;                 /*!< Offset: 0x008 (R/W)  CPI Count Register */
 854:Drivers/CMSIS/Include/core_cm3.h ****   __IOM uint32_t EXCCNT;                 /*!< Offset: 0x00C (R/W)  Exception Overhead Count Registe
 855:Drivers/CMSIS/Include/core_cm3.h ****   __IOM uint32_t SLEEPCNT;               /*!< Offset: 0x010 (R/W)  Sleep Count Register */
 856:Drivers/CMSIS/Include/core_cm3.h ****   __IOM uint32_t LSUCNT;                 /*!< Offset: 0x014 (R/W)  LSU Count Register */
 857:Drivers/CMSIS/Include/core_cm3.h ****   __IOM uint32_t FOLDCNT;                /*!< Offset: 0x018 (R/W)  Folded-instruction Count Registe
 858:Drivers/CMSIS/Include/core_cm3.h ****   __IM  uint32_t PCSR;                   /*!< Offset: 0x01C (R/ )  Program Counter Sample Register 
 859:Drivers/CMSIS/Include/core_cm3.h ****   __IOM uint32_t COMP0;                  /*!< Offset: 0x020 (R/W)  Comparator Register 0 */
 860:Drivers/CMSIS/Include/core_cm3.h ****   __IOM uint32_t MASK0;                  /*!< Offset: 0x024 (R/W)  Mask Register 0 */
 861:Drivers/CMSIS/Include/core_cm3.h ****   __IOM uint32_t FUNCTION0;              /*!< Offset: 0x028 (R/W)  Function Register 0 */
 862:Drivers/CMSIS/Include/core_cm3.h ****         uint32_t RESERVED0[1U];
 863:Drivers/CMSIS/Include/core_cm3.h ****   __IOM uint32_t COMP1;                  /*!< Offset: 0x030 (R/W)  Comparator Register 1 */
 864:Drivers/CMSIS/Include/core_cm3.h ****   __IOM uint32_t MASK1;                  /*!< Offset: 0x034 (R/W)  Mask Register 1 */
 865:Drivers/CMSIS/Include/core_cm3.h ****   __IOM uint32_t FUNCTION1;              /*!< Offset: 0x038 (R/W)  Function Register 1 */
 866:Drivers/CMSIS/Include/core_cm3.h ****         uint32_t RESERVED1[1U];
 867:Drivers/CMSIS/Include/core_cm3.h ****   __IOM uint32_t COMP2;                  /*!< Offset: 0x040 (R/W)  Comparator Register 2 */
 868:Drivers/CMSIS/Include/core_cm3.h ****   __IOM uint32_t MASK2;                  /*!< Offset: 0x044 (R/W)  Mask Register 2 */
 869:Drivers/CMSIS/Include/core_cm3.h ****   __IOM uint32_t FUNCTION2;              /*!< Offset: 0x048 (R/W)  Function Register 2 */
 870:Drivers/CMSIS/Include/core_cm3.h ****         uint32_t RESERVED2[1U];
 871:Drivers/CMSIS/Include/core_cm3.h ****   __IOM uint32_t COMP3;                  /*!< Offset: 0x050 (R/W)  Comparator Register 3 */
 872:Drivers/CMSIS/Include/core_cm3.h ****   __IOM uint32_t MASK3;                  /*!< Offset: 0x054 (R/W)  Mask Register 3 */
 873:Drivers/CMSIS/Include/core_cm3.h ****   __IOM uint32_t FUNCTION3;              /*!< Offset: 0x058 (R/W)  Function Register 3 */
 874:Drivers/CMSIS/Include/core_cm3.h **** } DWT_Type;
 875:Drivers/CMSIS/Include/core_cm3.h **** 
 876:Drivers/CMSIS/Include/core_cm3.h **** /* DWT Control Register Definitions */
 877:Drivers/CMSIS/Include/core_cm3.h **** #define DWT_CTRL_NUMCOMP_Pos               28U                                         /*!< DWT CTR
 878:Drivers/CMSIS/Include/core_cm3.h **** #define DWT_CTRL_NUMCOMP_Msk               (0xFUL << DWT_CTRL_NUMCOMP_Pos)             /*!< DWT CTR
 879:Drivers/CMSIS/Include/core_cm3.h **** 
 880:Drivers/CMSIS/Include/core_cm3.h **** #define DWT_CTRL_NOTRCPKT_Pos              27U                                         /*!< DWT CTR
 881:Drivers/CMSIS/Include/core_cm3.h **** #define DWT_CTRL_NOTRCPKT_Msk              (0x1UL << DWT_CTRL_NOTRCPKT_Pos)            /*!< DWT CTR
 882:Drivers/CMSIS/Include/core_cm3.h **** 
ARM GAS  C:\Users\Vento\AppData\Local\Temp\ccMWL8p6.s 			page 57


 883:Drivers/CMSIS/Include/core_cm3.h **** #define DWT_CTRL_NOEXTTRIG_Pos             26U                                         /*!< DWT CTR
 884:Drivers/CMSIS/Include/core_cm3.h **** #define DWT_CTRL_NOEXTTRIG_Msk             (0x1UL << DWT_CTRL_NOEXTTRIG_Pos)           /*!< DWT CTR
 885:Drivers/CMSIS/Include/core_cm3.h **** 
 886:Drivers/CMSIS/Include/core_cm3.h **** #define DWT_CTRL_NOCYCCNT_Pos              25U                                         /*!< DWT CTR
 887:Drivers/CMSIS/Include/core_cm3.h **** #define DWT_CTRL_NOCYCCNT_Msk              (0x1UL << DWT_CTRL_NOCYCCNT_Pos)            /*!< DWT CTR
 888:Drivers/CMSIS/Include/core_cm3.h **** 
 889:Drivers/CMSIS/Include/core_cm3.h **** #define DWT_CTRL_NOPRFCNT_Pos              24U                                         /*!< DWT CTR
 890:Drivers/CMSIS/Include/core_cm3.h **** #define DWT_CTRL_NOPRFCNT_Msk              (0x1UL << DWT_CTRL_NOPRFCNT_Pos)            /*!< DWT CTR
 891:Drivers/CMSIS/Include/core_cm3.h **** 
 892:Drivers/CMSIS/Include/core_cm3.h **** #define DWT_CTRL_CYCEVTENA_Pos             22U                                         /*!< DWT CTR
 893:Drivers/CMSIS/Include/core_cm3.h **** #define DWT_CTRL_CYCEVTENA_Msk             (0x1UL << DWT_CTRL_CYCEVTENA_Pos)           /*!< DWT CTR
 894:Drivers/CMSIS/Include/core_cm3.h **** 
 895:Drivers/CMSIS/Include/core_cm3.h **** #define DWT_CTRL_FOLDEVTENA_Pos            21U                                         /*!< DWT CTR
 896:Drivers/CMSIS/Include/core_cm3.h **** #define DWT_CTRL_FOLDEVTENA_Msk            (0x1UL << DWT_CTRL_FOLDEVTENA_Pos)          /*!< DWT CTR
 897:Drivers/CMSIS/Include/core_cm3.h **** 
 898:Drivers/CMSIS/Include/core_cm3.h **** #define DWT_CTRL_LSUEVTENA_Pos             20U                                         /*!< DWT CTR
 899:Drivers/CMSIS/Include/core_cm3.h **** #define DWT_CTRL_LSUEVTENA_Msk             (0x1UL << DWT_CTRL_LSUEVTENA_Pos)           /*!< DWT CTR
 900:Drivers/CMSIS/Include/core_cm3.h **** 
 901:Drivers/CMSIS/Include/core_cm3.h **** #define DWT_CTRL_SLEEPEVTENA_Pos           19U                                         /*!< DWT CTR
 902:Drivers/CMSIS/Include/core_cm3.h **** #define DWT_CTRL_SLEEPEVTENA_Msk           (0x1UL << DWT_CTRL_SLEEPEVTENA_Pos)         /*!< DWT CTR
 903:Drivers/CMSIS/Include/core_cm3.h **** 
 904:Drivers/CMSIS/Include/core_cm3.h **** #define DWT_CTRL_EXCEVTENA_Pos             18U                                         /*!< DWT CTR
 905:Drivers/CMSIS/Include/core_cm3.h **** #define DWT_CTRL_EXCEVTENA_Msk             (0x1UL << DWT_CTRL_EXCEVTENA_Pos)           /*!< DWT CTR
 906:Drivers/CMSIS/Include/core_cm3.h **** 
 907:Drivers/CMSIS/Include/core_cm3.h **** #define DWT_CTRL_CPIEVTENA_Pos             17U                                         /*!< DWT CTR
 908:Drivers/CMSIS/Include/core_cm3.h **** #define DWT_CTRL_CPIEVTENA_Msk             (0x1UL << DWT_CTRL_CPIEVTENA_Pos)           /*!< DWT CTR
 909:Drivers/CMSIS/Include/core_cm3.h **** 
 910:Drivers/CMSIS/Include/core_cm3.h **** #define DWT_CTRL_EXCTRCENA_Pos             16U                                         /*!< DWT CTR
 911:Drivers/CMSIS/Include/core_cm3.h **** #define DWT_CTRL_EXCTRCENA_Msk             (0x1UL << DWT_CTRL_EXCTRCENA_Pos)           /*!< DWT CTR
 912:Drivers/CMSIS/Include/core_cm3.h **** 
 913:Drivers/CMSIS/Include/core_cm3.h **** #define DWT_CTRL_PCSAMPLENA_Pos            12U                                         /*!< DWT CTR
 914:Drivers/CMSIS/Include/core_cm3.h **** #define DWT_CTRL_PCSAMPLENA_Msk            (0x1UL << DWT_CTRL_PCSAMPLENA_Pos)          /*!< DWT CTR
 915:Drivers/CMSIS/Include/core_cm3.h **** 
 916:Drivers/CMSIS/Include/core_cm3.h **** #define DWT_CTRL_SYNCTAP_Pos               10U                                         /*!< DWT CTR
 917:Drivers/CMSIS/Include/core_cm3.h **** #define DWT_CTRL_SYNCTAP_Msk               (0x3UL << DWT_CTRL_SYNCTAP_Pos)             /*!< DWT CTR
 918:Drivers/CMSIS/Include/core_cm3.h **** 
 919:Drivers/CMSIS/Include/core_cm3.h **** #define DWT_CTRL_CYCTAP_Pos                 9U                                         /*!< DWT CTR
 920:Drivers/CMSIS/Include/core_cm3.h **** #define DWT_CTRL_CYCTAP_Msk                (0x1UL << DWT_CTRL_CYCTAP_Pos)              /*!< DWT CTR
 921:Drivers/CMSIS/Include/core_cm3.h **** 
 922:Drivers/CMSIS/Include/core_cm3.h **** #define DWT_CTRL_POSTINIT_Pos               5U                                         /*!< DWT CTR
 923:Drivers/CMSIS/Include/core_cm3.h **** #define DWT_CTRL_POSTINIT_Msk              (0xFUL << DWT_CTRL_POSTINIT_Pos)            /*!< DWT CTR
 924:Drivers/CMSIS/Include/core_cm3.h **** 
 925:Drivers/CMSIS/Include/core_cm3.h **** #define DWT_CTRL_POSTPRESET_Pos             1U                                         /*!< DWT CTR
 926:Drivers/CMSIS/Include/core_cm3.h **** #define DWT_CTRL_POSTPRESET_Msk            (0xFUL << DWT_CTRL_POSTPRESET_Pos)          /*!< DWT CTR
 927:Drivers/CMSIS/Include/core_cm3.h **** 
 928:Drivers/CMSIS/Include/core_cm3.h **** #define DWT_CTRL_CYCCNTENA_Pos              0U                                         /*!< DWT CTR
 929:Drivers/CMSIS/Include/core_cm3.h **** #define DWT_CTRL_CYCCNTENA_Msk             (0x1UL /*<< DWT_CTRL_CYCCNTENA_Pos*/)       /*!< DWT CTR
 930:Drivers/CMSIS/Include/core_cm3.h **** 
 931:Drivers/CMSIS/Include/core_cm3.h **** /* DWT CPI Count Register Definitions */
 932:Drivers/CMSIS/Include/core_cm3.h **** #define DWT_CPICNT_CPICNT_Pos               0U                                         /*!< DWT CPI
 933:Drivers/CMSIS/Include/core_cm3.h **** #define DWT_CPICNT_CPICNT_Msk              (0xFFUL /*<< DWT_CPICNT_CPICNT_Pos*/)       /*!< DWT CPI
 934:Drivers/CMSIS/Include/core_cm3.h **** 
 935:Drivers/CMSIS/Include/core_cm3.h **** /* DWT Exception Overhead Count Register Definitions */
 936:Drivers/CMSIS/Include/core_cm3.h **** #define DWT_EXCCNT_EXCCNT_Pos               0U                                         /*!< DWT EXC
 937:Drivers/CMSIS/Include/core_cm3.h **** #define DWT_EXCCNT_EXCCNT_Msk              (0xFFUL /*<< DWT_EXCCNT_EXCCNT_Pos*/)       /*!< DWT EXC
 938:Drivers/CMSIS/Include/core_cm3.h **** 
 939:Drivers/CMSIS/Include/core_cm3.h **** /* DWT Sleep Count Register Definitions */
ARM GAS  C:\Users\Vento\AppData\Local\Temp\ccMWL8p6.s 			page 58


 940:Drivers/CMSIS/Include/core_cm3.h **** #define DWT_SLEEPCNT_SLEEPCNT_Pos           0U                                         /*!< DWT SLE
 941:Drivers/CMSIS/Include/core_cm3.h **** #define DWT_SLEEPCNT_SLEEPCNT_Msk          (0xFFUL /*<< DWT_SLEEPCNT_SLEEPCNT_Pos*/)   /*!< DWT SLE
 942:Drivers/CMSIS/Include/core_cm3.h **** 
 943:Drivers/CMSIS/Include/core_cm3.h **** /* DWT LSU Count Register Definitions */
 944:Drivers/CMSIS/Include/core_cm3.h **** #define DWT_LSUCNT_LSUCNT_Pos               0U                                         /*!< DWT LSU
 945:Drivers/CMSIS/Include/core_cm3.h **** #define DWT_LSUCNT_LSUCNT_Msk              (0xFFUL /*<< DWT_LSUCNT_LSUCNT_Pos*/)       /*!< DWT LSU
 946:Drivers/CMSIS/Include/core_cm3.h **** 
 947:Drivers/CMSIS/Include/core_cm3.h **** /* DWT Folded-instruction Count Register Definitions */
 948:Drivers/CMSIS/Include/core_cm3.h **** #define DWT_FOLDCNT_FOLDCNT_Pos             0U                                         /*!< DWT FOL
 949:Drivers/CMSIS/Include/core_cm3.h **** #define DWT_FOLDCNT_FOLDCNT_Msk            (0xFFUL /*<< DWT_FOLDCNT_FOLDCNT_Pos*/)     /*!< DWT FOL
 950:Drivers/CMSIS/Include/core_cm3.h **** 
 951:Drivers/CMSIS/Include/core_cm3.h **** /* DWT Comparator Mask Register Definitions */
 952:Drivers/CMSIS/Include/core_cm3.h **** #define DWT_MASK_MASK_Pos                   0U                                         /*!< DWT MAS
 953:Drivers/CMSIS/Include/core_cm3.h **** #define DWT_MASK_MASK_Msk                  (0x1FUL /*<< DWT_MASK_MASK_Pos*/)           /*!< DWT MAS
 954:Drivers/CMSIS/Include/core_cm3.h **** 
 955:Drivers/CMSIS/Include/core_cm3.h **** /* DWT Comparator Function Register Definitions */
 956:Drivers/CMSIS/Include/core_cm3.h **** #define DWT_FUNCTION_MATCHED_Pos           24U                                         /*!< DWT FUN
 957:Drivers/CMSIS/Include/core_cm3.h **** #define DWT_FUNCTION_MATCHED_Msk           (0x1UL << DWT_FUNCTION_MATCHED_Pos)         /*!< DWT FUN
 958:Drivers/CMSIS/Include/core_cm3.h **** 
 959:Drivers/CMSIS/Include/core_cm3.h **** #define DWT_FUNCTION_DATAVADDR1_Pos        16U                                         /*!< DWT FUN
 960:Drivers/CMSIS/Include/core_cm3.h **** #define DWT_FUNCTION_DATAVADDR1_Msk        (0xFUL << DWT_FUNCTION_DATAVADDR1_Pos)      /*!< DWT FUN
 961:Drivers/CMSIS/Include/core_cm3.h **** 
 962:Drivers/CMSIS/Include/core_cm3.h **** #define DWT_FUNCTION_DATAVADDR0_Pos        12U                                         /*!< DWT FUN
 963:Drivers/CMSIS/Include/core_cm3.h **** #define DWT_FUNCTION_DATAVADDR0_Msk        (0xFUL << DWT_FUNCTION_DATAVADDR0_Pos)      /*!< DWT FUN
 964:Drivers/CMSIS/Include/core_cm3.h **** 
 965:Drivers/CMSIS/Include/core_cm3.h **** #define DWT_FUNCTION_DATAVSIZE_Pos         10U                                         /*!< DWT FUN
 966:Drivers/CMSIS/Include/core_cm3.h **** #define DWT_FUNCTION_DATAVSIZE_Msk         (0x3UL << DWT_FUNCTION_DATAVSIZE_Pos)       /*!< DWT FUN
 967:Drivers/CMSIS/Include/core_cm3.h **** 
 968:Drivers/CMSIS/Include/core_cm3.h **** #define DWT_FUNCTION_LNK1ENA_Pos            9U                                         /*!< DWT FUN
 969:Drivers/CMSIS/Include/core_cm3.h **** #define DWT_FUNCTION_LNK1ENA_Msk           (0x1UL << DWT_FUNCTION_LNK1ENA_Pos)         /*!< DWT FUN
 970:Drivers/CMSIS/Include/core_cm3.h **** 
 971:Drivers/CMSIS/Include/core_cm3.h **** #define DWT_FUNCTION_DATAVMATCH_Pos         8U                                         /*!< DWT FUN
 972:Drivers/CMSIS/Include/core_cm3.h **** #define DWT_FUNCTION_DATAVMATCH_Msk        (0x1UL << DWT_FUNCTION_DATAVMATCH_Pos)      /*!< DWT FUN
 973:Drivers/CMSIS/Include/core_cm3.h **** 
 974:Drivers/CMSIS/Include/core_cm3.h **** #define DWT_FUNCTION_CYCMATCH_Pos           7U                                         /*!< DWT FUN
 975:Drivers/CMSIS/Include/core_cm3.h **** #define DWT_FUNCTION_CYCMATCH_Msk          (0x1UL << DWT_FUNCTION_CYCMATCH_Pos)        /*!< DWT FUN
 976:Drivers/CMSIS/Include/core_cm3.h **** 
 977:Drivers/CMSIS/Include/core_cm3.h **** #define DWT_FUNCTION_EMITRANGE_Pos          5U                                         /*!< DWT FUN
 978:Drivers/CMSIS/Include/core_cm3.h **** #define DWT_FUNCTION_EMITRANGE_Msk         (0x1UL << DWT_FUNCTION_EMITRANGE_Pos)       /*!< DWT FUN
 979:Drivers/CMSIS/Include/core_cm3.h **** 
 980:Drivers/CMSIS/Include/core_cm3.h **** #define DWT_FUNCTION_FUNCTION_Pos           0U                                         /*!< DWT FUN
 981:Drivers/CMSIS/Include/core_cm3.h **** #define DWT_FUNCTION_FUNCTION_Msk          (0xFUL /*<< DWT_FUNCTION_FUNCTION_Pos*/)    /*!< DWT FUN
 982:Drivers/CMSIS/Include/core_cm3.h **** 
 983:Drivers/CMSIS/Include/core_cm3.h **** /*@}*/ /* end of group CMSIS_DWT */
 984:Drivers/CMSIS/Include/core_cm3.h **** 
 985:Drivers/CMSIS/Include/core_cm3.h **** 
 986:Drivers/CMSIS/Include/core_cm3.h **** /**
 987:Drivers/CMSIS/Include/core_cm3.h ****   \ingroup  CMSIS_core_register
 988:Drivers/CMSIS/Include/core_cm3.h ****   \defgroup CMSIS_TPI     Trace Port Interface (TPI)
 989:Drivers/CMSIS/Include/core_cm3.h ****   \brief    Type definitions for the Trace Port Interface (TPI)
 990:Drivers/CMSIS/Include/core_cm3.h ****   @{
 991:Drivers/CMSIS/Include/core_cm3.h ****  */
 992:Drivers/CMSIS/Include/core_cm3.h **** 
 993:Drivers/CMSIS/Include/core_cm3.h **** /**
 994:Drivers/CMSIS/Include/core_cm3.h ****   \brief  Structure type to access the Trace Port Interface Register (TPI).
 995:Drivers/CMSIS/Include/core_cm3.h ****  */
 996:Drivers/CMSIS/Include/core_cm3.h **** typedef struct
ARM GAS  C:\Users\Vento\AppData\Local\Temp\ccMWL8p6.s 			page 59


 997:Drivers/CMSIS/Include/core_cm3.h **** {
 998:Drivers/CMSIS/Include/core_cm3.h ****   __IM  uint32_t SSPSR;                  /*!< Offset: 0x000 (R/ )  Supported Parallel Port Size Reg
 999:Drivers/CMSIS/Include/core_cm3.h ****   __IOM uint32_t CSPSR;                  /*!< Offset: 0x004 (R/W)  Current Parallel Port Size Regis
1000:Drivers/CMSIS/Include/core_cm3.h ****         uint32_t RESERVED0[2U];
1001:Drivers/CMSIS/Include/core_cm3.h ****   __IOM uint32_t ACPR;                   /*!< Offset: 0x010 (R/W)  Asynchronous Clock Prescaler Reg
1002:Drivers/CMSIS/Include/core_cm3.h ****         uint32_t RESERVED1[55U];
1003:Drivers/CMSIS/Include/core_cm3.h ****   __IOM uint32_t SPPR;                   /*!< Offset: 0x0F0 (R/W)  Selected Pin Protocol Register *
1004:Drivers/CMSIS/Include/core_cm3.h ****         uint32_t RESERVED2[131U];
1005:Drivers/CMSIS/Include/core_cm3.h ****   __IM  uint32_t FFSR;                   /*!< Offset: 0x300 (R/ )  Formatter and Flush Status Regis
1006:Drivers/CMSIS/Include/core_cm3.h ****   __IOM uint32_t FFCR;                   /*!< Offset: 0x304 (R/W)  Formatter and Flush Control Regi
1007:Drivers/CMSIS/Include/core_cm3.h ****   __IM  uint32_t FSCR;                   /*!< Offset: 0x308 (R/ )  Formatter Synchronization Counte
1008:Drivers/CMSIS/Include/core_cm3.h ****         uint32_t RESERVED3[759U];
1009:Drivers/CMSIS/Include/core_cm3.h ****   __IM  uint32_t TRIGGER;                /*!< Offset: 0xEE8 (R/ )  TRIGGER Register */
1010:Drivers/CMSIS/Include/core_cm3.h ****   __IM  uint32_t FIFO0;                  /*!< Offset: 0xEEC (R/ )  Integration ETM Data */
1011:Drivers/CMSIS/Include/core_cm3.h ****   __IM  uint32_t ITATBCTR2;              /*!< Offset: 0xEF0 (R/ )  ITATBCTR2 */
1012:Drivers/CMSIS/Include/core_cm3.h ****         uint32_t RESERVED4[1U];
1013:Drivers/CMSIS/Include/core_cm3.h ****   __IM  uint32_t ITATBCTR0;              /*!< Offset: 0xEF8 (R/ )  ITATBCTR0 */
1014:Drivers/CMSIS/Include/core_cm3.h ****   __IM  uint32_t FIFO1;                  /*!< Offset: 0xEFC (R/ )  Integration ITM Data */
1015:Drivers/CMSIS/Include/core_cm3.h ****   __IOM uint32_t ITCTRL;                 /*!< Offset: 0xF00 (R/W)  Integration Mode Control */
1016:Drivers/CMSIS/Include/core_cm3.h ****         uint32_t RESERVED5[39U];
1017:Drivers/CMSIS/Include/core_cm3.h ****   __IOM uint32_t CLAIMSET;               /*!< Offset: 0xFA0 (R/W)  Claim tag set */
1018:Drivers/CMSIS/Include/core_cm3.h ****   __IOM uint32_t CLAIMCLR;               /*!< Offset: 0xFA4 (R/W)  Claim tag clear */
1019:Drivers/CMSIS/Include/core_cm3.h ****         uint32_t RESERVED7[8U];
1020:Drivers/CMSIS/Include/core_cm3.h ****   __IM  uint32_t DEVID;                  /*!< Offset: 0xFC8 (R/ )  TPIU_DEVID */
1021:Drivers/CMSIS/Include/core_cm3.h ****   __IM  uint32_t DEVTYPE;                /*!< Offset: 0xFCC (R/ )  TPIU_DEVTYPE */
1022:Drivers/CMSIS/Include/core_cm3.h **** } TPI_Type;
1023:Drivers/CMSIS/Include/core_cm3.h **** 
1024:Drivers/CMSIS/Include/core_cm3.h **** /* TPI Asynchronous Clock Prescaler Register Definitions */
1025:Drivers/CMSIS/Include/core_cm3.h **** #define TPI_ACPR_PRESCALER_Pos              0U                                         /*!< TPI ACP
1026:Drivers/CMSIS/Include/core_cm3.h **** #define TPI_ACPR_PRESCALER_Msk             (0x1FFFUL /*<< TPI_ACPR_PRESCALER_Pos*/)    /*!< TPI ACP
1027:Drivers/CMSIS/Include/core_cm3.h **** 
1028:Drivers/CMSIS/Include/core_cm3.h **** /* TPI Selected Pin Protocol Register Definitions */
1029:Drivers/CMSIS/Include/core_cm3.h **** #define TPI_SPPR_TXMODE_Pos                 0U                                         /*!< TPI SPP
1030:Drivers/CMSIS/Include/core_cm3.h **** #define TPI_SPPR_TXMODE_Msk                (0x3UL /*<< TPI_SPPR_TXMODE_Pos*/)          /*!< TPI SPP
1031:Drivers/CMSIS/Include/core_cm3.h **** 
1032:Drivers/CMSIS/Include/core_cm3.h **** /* TPI Formatter and Flush Status Register Definitions */
1033:Drivers/CMSIS/Include/core_cm3.h **** #define TPI_FFSR_FtNonStop_Pos              3U                                         /*!< TPI FFS
1034:Drivers/CMSIS/Include/core_cm3.h **** #define TPI_FFSR_FtNonStop_Msk             (0x1UL << TPI_FFSR_FtNonStop_Pos)           /*!< TPI FFS
1035:Drivers/CMSIS/Include/core_cm3.h **** 
1036:Drivers/CMSIS/Include/core_cm3.h **** #define TPI_FFSR_TCPresent_Pos              2U                                         /*!< TPI FFS
1037:Drivers/CMSIS/Include/core_cm3.h **** #define TPI_FFSR_TCPresent_Msk             (0x1UL << TPI_FFSR_TCPresent_Pos)           /*!< TPI FFS
1038:Drivers/CMSIS/Include/core_cm3.h **** 
1039:Drivers/CMSIS/Include/core_cm3.h **** #define TPI_FFSR_FtStopped_Pos              1U                                         /*!< TPI FFS
1040:Drivers/CMSIS/Include/core_cm3.h **** #define TPI_FFSR_FtStopped_Msk             (0x1UL << TPI_FFSR_FtStopped_Pos)           /*!< TPI FFS
1041:Drivers/CMSIS/Include/core_cm3.h **** 
1042:Drivers/CMSIS/Include/core_cm3.h **** #define TPI_FFSR_FlInProg_Pos               0U                                         /*!< TPI FFS
1043:Drivers/CMSIS/Include/core_cm3.h **** #define TPI_FFSR_FlInProg_Msk              (0x1UL /*<< TPI_FFSR_FlInProg_Pos*/)        /*!< TPI FFS
1044:Drivers/CMSIS/Include/core_cm3.h **** 
1045:Drivers/CMSIS/Include/core_cm3.h **** /* TPI Formatter and Flush Control Register Definitions */
1046:Drivers/CMSIS/Include/core_cm3.h **** #define TPI_FFCR_TrigIn_Pos                 8U                                         /*!< TPI FFC
1047:Drivers/CMSIS/Include/core_cm3.h **** #define TPI_FFCR_TrigIn_Msk                (0x1UL << TPI_FFCR_TrigIn_Pos)              /*!< TPI FFC
1048:Drivers/CMSIS/Include/core_cm3.h **** 
1049:Drivers/CMSIS/Include/core_cm3.h **** #define TPI_FFCR_EnFCont_Pos                1U                                         /*!< TPI FFC
1050:Drivers/CMSIS/Include/core_cm3.h **** #define TPI_FFCR_EnFCont_Msk               (0x1UL << TPI_FFCR_EnFCont_Pos)             /*!< TPI FFC
1051:Drivers/CMSIS/Include/core_cm3.h **** 
1052:Drivers/CMSIS/Include/core_cm3.h **** /* TPI TRIGGER Register Definitions */
1053:Drivers/CMSIS/Include/core_cm3.h **** #define TPI_TRIGGER_TRIGGER_Pos             0U                                         /*!< TPI TRI
ARM GAS  C:\Users\Vento\AppData\Local\Temp\ccMWL8p6.s 			page 60


1054:Drivers/CMSIS/Include/core_cm3.h **** #define TPI_TRIGGER_TRIGGER_Msk            (0x1UL /*<< TPI_TRIGGER_TRIGGER_Pos*/)      /*!< TPI TRI
1055:Drivers/CMSIS/Include/core_cm3.h **** 
1056:Drivers/CMSIS/Include/core_cm3.h **** /* TPI Integration ETM Data Register Definitions (FIFO0) */
1057:Drivers/CMSIS/Include/core_cm3.h **** #define TPI_FIFO0_ITM_ATVALID_Pos          29U                                         /*!< TPI FIF
1058:Drivers/CMSIS/Include/core_cm3.h **** #define TPI_FIFO0_ITM_ATVALID_Msk          (0x3UL << TPI_FIFO0_ITM_ATVALID_Pos)        /*!< TPI FIF
1059:Drivers/CMSIS/Include/core_cm3.h **** 
1060:Drivers/CMSIS/Include/core_cm3.h **** #define TPI_FIFO0_ITM_bytecount_Pos        27U                                         /*!< TPI FIF
1061:Drivers/CMSIS/Include/core_cm3.h **** #define TPI_FIFO0_ITM_bytecount_Msk        (0x3UL << TPI_FIFO0_ITM_bytecount_Pos)      /*!< TPI FIF
1062:Drivers/CMSIS/Include/core_cm3.h **** 
1063:Drivers/CMSIS/Include/core_cm3.h **** #define TPI_FIFO0_ETM_ATVALID_Pos          26U                                         /*!< TPI FIF
1064:Drivers/CMSIS/Include/core_cm3.h **** #define TPI_FIFO0_ETM_ATVALID_Msk          (0x3UL << TPI_FIFO0_ETM_ATVALID_Pos)        /*!< TPI FIF
1065:Drivers/CMSIS/Include/core_cm3.h **** 
1066:Drivers/CMSIS/Include/core_cm3.h **** #define TPI_FIFO0_ETM_bytecount_Pos        24U                                         /*!< TPI FIF
1067:Drivers/CMSIS/Include/core_cm3.h **** #define TPI_FIFO0_ETM_bytecount_Msk        (0x3UL << TPI_FIFO0_ETM_bytecount_Pos)      /*!< TPI FIF
1068:Drivers/CMSIS/Include/core_cm3.h **** 
1069:Drivers/CMSIS/Include/core_cm3.h **** #define TPI_FIFO0_ETM2_Pos                 16U                                         /*!< TPI FIF
1070:Drivers/CMSIS/Include/core_cm3.h **** #define TPI_FIFO0_ETM2_Msk                 (0xFFUL << TPI_FIFO0_ETM2_Pos)              /*!< TPI FIF
1071:Drivers/CMSIS/Include/core_cm3.h **** 
1072:Drivers/CMSIS/Include/core_cm3.h **** #define TPI_FIFO0_ETM1_Pos                  8U                                         /*!< TPI FIF
1073:Drivers/CMSIS/Include/core_cm3.h **** #define TPI_FIFO0_ETM1_Msk                 (0xFFUL << TPI_FIFO0_ETM1_Pos)              /*!< TPI FIF
1074:Drivers/CMSIS/Include/core_cm3.h **** 
1075:Drivers/CMSIS/Include/core_cm3.h **** #define TPI_FIFO0_ETM0_Pos                  0U                                         /*!< TPI FIF
1076:Drivers/CMSIS/Include/core_cm3.h **** #define TPI_FIFO0_ETM0_Msk                 (0xFFUL /*<< TPI_FIFO0_ETM0_Pos*/)          /*!< TPI FIF
1077:Drivers/CMSIS/Include/core_cm3.h **** 
1078:Drivers/CMSIS/Include/core_cm3.h **** /* TPI ITATBCTR2 Register Definitions */
1079:Drivers/CMSIS/Include/core_cm3.h **** #define TPI_ITATBCTR2_ATREADY2_Pos          0U                                         /*!< TPI ITA
1080:Drivers/CMSIS/Include/core_cm3.h **** #define TPI_ITATBCTR2_ATREADY2_Msk         (0x1UL /*<< TPI_ITATBCTR2_ATREADY2_Pos*/)   /*!< TPI ITA
1081:Drivers/CMSIS/Include/core_cm3.h **** 
1082:Drivers/CMSIS/Include/core_cm3.h **** #define TPI_ITATBCTR2_ATREADY1_Pos          0U                                         /*!< TPI ITA
1083:Drivers/CMSIS/Include/core_cm3.h **** #define TPI_ITATBCTR2_ATREADY1_Msk         (0x1UL /*<< TPI_ITATBCTR2_ATREADY1_Pos*/)   /*!< TPI ITA
1084:Drivers/CMSIS/Include/core_cm3.h **** 
1085:Drivers/CMSIS/Include/core_cm3.h **** /* TPI Integration ITM Data Register Definitions (FIFO1) */
1086:Drivers/CMSIS/Include/core_cm3.h **** #define TPI_FIFO1_ITM_ATVALID_Pos          29U                                         /*!< TPI FIF
1087:Drivers/CMSIS/Include/core_cm3.h **** #define TPI_FIFO1_ITM_ATVALID_Msk          (0x3UL << TPI_FIFO1_ITM_ATVALID_Pos)        /*!< TPI FIF
1088:Drivers/CMSIS/Include/core_cm3.h **** 
1089:Drivers/CMSIS/Include/core_cm3.h **** #define TPI_FIFO1_ITM_bytecount_Pos        27U                                         /*!< TPI FIF
1090:Drivers/CMSIS/Include/core_cm3.h **** #define TPI_FIFO1_ITM_bytecount_Msk        (0x3UL << TPI_FIFO1_ITM_bytecount_Pos)      /*!< TPI FIF
1091:Drivers/CMSIS/Include/core_cm3.h **** 
1092:Drivers/CMSIS/Include/core_cm3.h **** #define TPI_FIFO1_ETM_ATVALID_Pos          26U                                         /*!< TPI FIF
1093:Drivers/CMSIS/Include/core_cm3.h **** #define TPI_FIFO1_ETM_ATVALID_Msk          (0x3UL << TPI_FIFO1_ETM_ATVALID_Pos)        /*!< TPI FIF
1094:Drivers/CMSIS/Include/core_cm3.h **** 
1095:Drivers/CMSIS/Include/core_cm3.h **** #define TPI_FIFO1_ETM_bytecount_Pos        24U                                         /*!< TPI FIF
1096:Drivers/CMSIS/Include/core_cm3.h **** #define TPI_FIFO1_ETM_bytecount_Msk        (0x3UL << TPI_FIFO1_ETM_bytecount_Pos)      /*!< TPI FIF
1097:Drivers/CMSIS/Include/core_cm3.h **** 
1098:Drivers/CMSIS/Include/core_cm3.h **** #define TPI_FIFO1_ITM2_Pos                 16U                                         /*!< TPI FIF
1099:Drivers/CMSIS/Include/core_cm3.h **** #define TPI_FIFO1_ITM2_Msk                 (0xFFUL << TPI_FIFO1_ITM2_Pos)              /*!< TPI FIF
1100:Drivers/CMSIS/Include/core_cm3.h **** 
1101:Drivers/CMSIS/Include/core_cm3.h **** #define TPI_FIFO1_ITM1_Pos                  8U                                         /*!< TPI FIF
1102:Drivers/CMSIS/Include/core_cm3.h **** #define TPI_FIFO1_ITM1_Msk                 (0xFFUL << TPI_FIFO1_ITM1_Pos)              /*!< TPI FIF
1103:Drivers/CMSIS/Include/core_cm3.h **** 
1104:Drivers/CMSIS/Include/core_cm3.h **** #define TPI_FIFO1_ITM0_Pos                  0U                                         /*!< TPI FIF
1105:Drivers/CMSIS/Include/core_cm3.h **** #define TPI_FIFO1_ITM0_Msk                 (0xFFUL /*<< TPI_FIFO1_ITM0_Pos*/)          /*!< TPI FIF
1106:Drivers/CMSIS/Include/core_cm3.h **** 
1107:Drivers/CMSIS/Include/core_cm3.h **** /* TPI ITATBCTR0 Register Definitions */
1108:Drivers/CMSIS/Include/core_cm3.h **** #define TPI_ITATBCTR0_ATREADY2_Pos          0U                                         /*!< TPI ITA
1109:Drivers/CMSIS/Include/core_cm3.h **** #define TPI_ITATBCTR0_ATREADY2_Msk         (0x1UL /*<< TPI_ITATBCTR0_ATREADY2_Pos*/)   /*!< TPI ITA
1110:Drivers/CMSIS/Include/core_cm3.h **** 
ARM GAS  C:\Users\Vento\AppData\Local\Temp\ccMWL8p6.s 			page 61


1111:Drivers/CMSIS/Include/core_cm3.h **** #define TPI_ITATBCTR0_ATREADY1_Pos          0U                                         /*!< TPI ITA
1112:Drivers/CMSIS/Include/core_cm3.h **** #define TPI_ITATBCTR0_ATREADY1_Msk         (0x1UL /*<< TPI_ITATBCTR0_ATREADY1_Pos*/)   /*!< TPI ITA
1113:Drivers/CMSIS/Include/core_cm3.h **** 
1114:Drivers/CMSIS/Include/core_cm3.h **** /* TPI Integration Mode Control Register Definitions */
1115:Drivers/CMSIS/Include/core_cm3.h **** #define TPI_ITCTRL_Mode_Pos                 0U                                         /*!< TPI ITC
1116:Drivers/CMSIS/Include/core_cm3.h **** #define TPI_ITCTRL_Mode_Msk                (0x3UL /*<< TPI_ITCTRL_Mode_Pos*/)          /*!< TPI ITC
1117:Drivers/CMSIS/Include/core_cm3.h **** 
1118:Drivers/CMSIS/Include/core_cm3.h **** /* TPI DEVID Register Definitions */
1119:Drivers/CMSIS/Include/core_cm3.h **** #define TPI_DEVID_NRZVALID_Pos             11U                                         /*!< TPI DEV
1120:Drivers/CMSIS/Include/core_cm3.h **** #define TPI_DEVID_NRZVALID_Msk             (0x1UL << TPI_DEVID_NRZVALID_Pos)           /*!< TPI DEV
1121:Drivers/CMSIS/Include/core_cm3.h **** 
1122:Drivers/CMSIS/Include/core_cm3.h **** #define TPI_DEVID_MANCVALID_Pos            10U                                         /*!< TPI DEV
1123:Drivers/CMSIS/Include/core_cm3.h **** #define TPI_DEVID_MANCVALID_Msk            (0x1UL << TPI_DEVID_MANCVALID_Pos)          /*!< TPI DEV
1124:Drivers/CMSIS/Include/core_cm3.h **** 
1125:Drivers/CMSIS/Include/core_cm3.h **** #define TPI_DEVID_PTINVALID_Pos             9U                                         /*!< TPI DEV
1126:Drivers/CMSIS/Include/core_cm3.h **** #define TPI_DEVID_PTINVALID_Msk            (0x1UL << TPI_DEVID_PTINVALID_Pos)          /*!< TPI DEV
1127:Drivers/CMSIS/Include/core_cm3.h **** 
1128:Drivers/CMSIS/Include/core_cm3.h **** #define TPI_DEVID_MinBufSz_Pos              6U                                         /*!< TPI DEV
1129:Drivers/CMSIS/Include/core_cm3.h **** #define TPI_DEVID_MinBufSz_Msk             (0x7UL << TPI_DEVID_MinBufSz_Pos)           /*!< TPI DEV
1130:Drivers/CMSIS/Include/core_cm3.h **** 
1131:Drivers/CMSIS/Include/core_cm3.h **** #define TPI_DEVID_AsynClkIn_Pos             5U                                         /*!< TPI DEV
1132:Drivers/CMSIS/Include/core_cm3.h **** #define TPI_DEVID_AsynClkIn_Msk            (0x1UL << TPI_DEVID_AsynClkIn_Pos)          /*!< TPI DEV
1133:Drivers/CMSIS/Include/core_cm3.h **** 
1134:Drivers/CMSIS/Include/core_cm3.h **** #define TPI_DEVID_NrTraceInput_Pos          0U                                         /*!< TPI DEV
1135:Drivers/CMSIS/Include/core_cm3.h **** #define TPI_DEVID_NrTraceInput_Msk         (0x1FUL /*<< TPI_DEVID_NrTraceInput_Pos*/)  /*!< TPI DEV
1136:Drivers/CMSIS/Include/core_cm3.h **** 
1137:Drivers/CMSIS/Include/core_cm3.h **** /* TPI DEVTYPE Register Definitions */
1138:Drivers/CMSIS/Include/core_cm3.h **** #define TPI_DEVTYPE_SubType_Pos             4U                                         /*!< TPI DEV
1139:Drivers/CMSIS/Include/core_cm3.h **** #define TPI_DEVTYPE_SubType_Msk            (0xFUL /*<< TPI_DEVTYPE_SubType_Pos*/)      /*!< TPI DEV
1140:Drivers/CMSIS/Include/core_cm3.h **** 
1141:Drivers/CMSIS/Include/core_cm3.h **** #define TPI_DEVTYPE_MajorType_Pos           0U                                         /*!< TPI DEV
1142:Drivers/CMSIS/Include/core_cm3.h **** #define TPI_DEVTYPE_MajorType_Msk          (0xFUL << TPI_DEVTYPE_MajorType_Pos)        /*!< TPI DEV
1143:Drivers/CMSIS/Include/core_cm3.h **** 
1144:Drivers/CMSIS/Include/core_cm3.h **** /*@}*/ /* end of group CMSIS_TPI */
1145:Drivers/CMSIS/Include/core_cm3.h **** 
1146:Drivers/CMSIS/Include/core_cm3.h **** 
1147:Drivers/CMSIS/Include/core_cm3.h **** #if defined (__MPU_PRESENT) && (__MPU_PRESENT == 1U)
1148:Drivers/CMSIS/Include/core_cm3.h **** /**
1149:Drivers/CMSIS/Include/core_cm3.h ****   \ingroup  CMSIS_core_register
1150:Drivers/CMSIS/Include/core_cm3.h ****   \defgroup CMSIS_MPU     Memory Protection Unit (MPU)
1151:Drivers/CMSIS/Include/core_cm3.h ****   \brief    Type definitions for the Memory Protection Unit (MPU)
1152:Drivers/CMSIS/Include/core_cm3.h ****   @{
1153:Drivers/CMSIS/Include/core_cm3.h ****  */
1154:Drivers/CMSIS/Include/core_cm3.h **** 
1155:Drivers/CMSIS/Include/core_cm3.h **** /**
1156:Drivers/CMSIS/Include/core_cm3.h ****   \brief  Structure type to access the Memory Protection Unit (MPU).
1157:Drivers/CMSIS/Include/core_cm3.h ****  */
1158:Drivers/CMSIS/Include/core_cm3.h **** typedef struct
1159:Drivers/CMSIS/Include/core_cm3.h **** {
1160:Drivers/CMSIS/Include/core_cm3.h ****   __IM  uint32_t TYPE;                   /*!< Offset: 0x000 (R/ )  MPU Type Register */
1161:Drivers/CMSIS/Include/core_cm3.h ****   __IOM uint32_t CTRL;                   /*!< Offset: 0x004 (R/W)  MPU Control Register */
1162:Drivers/CMSIS/Include/core_cm3.h ****   __IOM uint32_t RNR;                    /*!< Offset: 0x008 (R/W)  MPU Region RNRber Register */
1163:Drivers/CMSIS/Include/core_cm3.h ****   __IOM uint32_t RBAR;                   /*!< Offset: 0x00C (R/W)  MPU Region Base Address Register
1164:Drivers/CMSIS/Include/core_cm3.h ****   __IOM uint32_t RASR;                   /*!< Offset: 0x010 (R/W)  MPU Region Attribute and Size Re
1165:Drivers/CMSIS/Include/core_cm3.h ****   __IOM uint32_t RBAR_A1;                /*!< Offset: 0x014 (R/W)  MPU Alias 1 Region Base Address 
1166:Drivers/CMSIS/Include/core_cm3.h ****   __IOM uint32_t RASR_A1;                /*!< Offset: 0x018 (R/W)  MPU Alias 1 Region Attribute and
1167:Drivers/CMSIS/Include/core_cm3.h ****   __IOM uint32_t RBAR_A2;                /*!< Offset: 0x01C (R/W)  MPU Alias 2 Region Base Address 
ARM GAS  C:\Users\Vento\AppData\Local\Temp\ccMWL8p6.s 			page 62


1168:Drivers/CMSIS/Include/core_cm3.h ****   __IOM uint32_t RASR_A2;                /*!< Offset: 0x020 (R/W)  MPU Alias 2 Region Attribute and
1169:Drivers/CMSIS/Include/core_cm3.h ****   __IOM uint32_t RBAR_A3;                /*!< Offset: 0x024 (R/W)  MPU Alias 3 Region Base Address 
1170:Drivers/CMSIS/Include/core_cm3.h ****   __IOM uint32_t RASR_A3;                /*!< Offset: 0x028 (R/W)  MPU Alias 3 Region Attribute and
1171:Drivers/CMSIS/Include/core_cm3.h **** } MPU_Type;
1172:Drivers/CMSIS/Include/core_cm3.h **** 
1173:Drivers/CMSIS/Include/core_cm3.h **** #define MPU_TYPE_RALIASES                  4U
1174:Drivers/CMSIS/Include/core_cm3.h **** 
1175:Drivers/CMSIS/Include/core_cm3.h **** /* MPU Type Register Definitions */
1176:Drivers/CMSIS/Include/core_cm3.h **** #define MPU_TYPE_IREGION_Pos               16U                                            /*!< MPU 
1177:Drivers/CMSIS/Include/core_cm3.h **** #define MPU_TYPE_IREGION_Msk               (0xFFUL << MPU_TYPE_IREGION_Pos)               /*!< MPU 
1178:Drivers/CMSIS/Include/core_cm3.h **** 
1179:Drivers/CMSIS/Include/core_cm3.h **** #define MPU_TYPE_DREGION_Pos                8U                                            /*!< MPU 
1180:Drivers/CMSIS/Include/core_cm3.h **** #define MPU_TYPE_DREGION_Msk               (0xFFUL << MPU_TYPE_DREGION_Pos)               /*!< MPU 
1181:Drivers/CMSIS/Include/core_cm3.h **** 
1182:Drivers/CMSIS/Include/core_cm3.h **** #define MPU_TYPE_SEPARATE_Pos               0U                                            /*!< MPU 
1183:Drivers/CMSIS/Include/core_cm3.h **** #define MPU_TYPE_SEPARATE_Msk              (1UL /*<< MPU_TYPE_SEPARATE_Pos*/)             /*!< MPU 
1184:Drivers/CMSIS/Include/core_cm3.h **** 
1185:Drivers/CMSIS/Include/core_cm3.h **** /* MPU Control Register Definitions */
1186:Drivers/CMSIS/Include/core_cm3.h **** #define MPU_CTRL_PRIVDEFENA_Pos             2U                                            /*!< MPU 
1187:Drivers/CMSIS/Include/core_cm3.h **** #define MPU_CTRL_PRIVDEFENA_Msk            (1UL << MPU_CTRL_PRIVDEFENA_Pos)               /*!< MPU 
1188:Drivers/CMSIS/Include/core_cm3.h **** 
1189:Drivers/CMSIS/Include/core_cm3.h **** #define MPU_CTRL_HFNMIENA_Pos               1U                                            /*!< MPU 
1190:Drivers/CMSIS/Include/core_cm3.h **** #define MPU_CTRL_HFNMIENA_Msk              (1UL << MPU_CTRL_HFNMIENA_Pos)                 /*!< MPU 
1191:Drivers/CMSIS/Include/core_cm3.h **** 
1192:Drivers/CMSIS/Include/core_cm3.h **** #define MPU_CTRL_ENABLE_Pos                 0U                                            /*!< MPU 
1193:Drivers/CMSIS/Include/core_cm3.h **** #define MPU_CTRL_ENABLE_Msk                (1UL /*<< MPU_CTRL_ENABLE_Pos*/)               /*!< MPU 
1194:Drivers/CMSIS/Include/core_cm3.h **** 
1195:Drivers/CMSIS/Include/core_cm3.h **** /* MPU Region Number Register Definitions */
1196:Drivers/CMSIS/Include/core_cm3.h **** #define MPU_RNR_REGION_Pos                  0U                                            /*!< MPU 
1197:Drivers/CMSIS/Include/core_cm3.h **** #define MPU_RNR_REGION_Msk                 (0xFFUL /*<< MPU_RNR_REGION_Pos*/)             /*!< MPU 
1198:Drivers/CMSIS/Include/core_cm3.h **** 
1199:Drivers/CMSIS/Include/core_cm3.h **** /* MPU Region Base Address Register Definitions */
1200:Drivers/CMSIS/Include/core_cm3.h **** #define MPU_RBAR_ADDR_Pos                   5U                                            /*!< MPU 
1201:Drivers/CMSIS/Include/core_cm3.h **** #define MPU_RBAR_ADDR_Msk                  (0x7FFFFFFUL << MPU_RBAR_ADDR_Pos)             /*!< MPU 
1202:Drivers/CMSIS/Include/core_cm3.h **** 
1203:Drivers/CMSIS/Include/core_cm3.h **** #define MPU_RBAR_VALID_Pos                  4U                                            /*!< MPU 
1204:Drivers/CMSIS/Include/core_cm3.h **** #define MPU_RBAR_VALID_Msk                 (1UL << MPU_RBAR_VALID_Pos)                    /*!< MPU 
1205:Drivers/CMSIS/Include/core_cm3.h **** 
1206:Drivers/CMSIS/Include/core_cm3.h **** #define MPU_RBAR_REGION_Pos                 0U                                            /*!< MPU 
1207:Drivers/CMSIS/Include/core_cm3.h **** #define MPU_RBAR_REGION_Msk                (0xFUL /*<< MPU_RBAR_REGION_Pos*/)             /*!< MPU 
1208:Drivers/CMSIS/Include/core_cm3.h **** 
1209:Drivers/CMSIS/Include/core_cm3.h **** /* MPU Region Attribute and Size Register Definitions */
1210:Drivers/CMSIS/Include/core_cm3.h **** #define MPU_RASR_ATTRS_Pos                 16U                                            /*!< MPU 
1211:Drivers/CMSIS/Include/core_cm3.h **** #define MPU_RASR_ATTRS_Msk                 (0xFFFFUL << MPU_RASR_ATTRS_Pos)               /*!< MPU 
1212:Drivers/CMSIS/Include/core_cm3.h **** 
1213:Drivers/CMSIS/Include/core_cm3.h **** #define MPU_RASR_XN_Pos                    28U                                            /*!< MPU 
1214:Drivers/CMSIS/Include/core_cm3.h **** #define MPU_RASR_XN_Msk                    (1UL << MPU_RASR_XN_Pos)                       /*!< MPU 
1215:Drivers/CMSIS/Include/core_cm3.h **** 
1216:Drivers/CMSIS/Include/core_cm3.h **** #define MPU_RASR_AP_Pos                    24U                                            /*!< MPU 
1217:Drivers/CMSIS/Include/core_cm3.h **** #define MPU_RASR_AP_Msk                    (0x7UL << MPU_RASR_AP_Pos)                     /*!< MPU 
1218:Drivers/CMSIS/Include/core_cm3.h **** 
1219:Drivers/CMSIS/Include/core_cm3.h **** #define MPU_RASR_TEX_Pos                   19U                                            /*!< MPU 
1220:Drivers/CMSIS/Include/core_cm3.h **** #define MPU_RASR_TEX_Msk                   (0x7UL << MPU_RASR_TEX_Pos)                    /*!< MPU 
1221:Drivers/CMSIS/Include/core_cm3.h **** 
1222:Drivers/CMSIS/Include/core_cm3.h **** #define MPU_RASR_S_Pos                     18U                                            /*!< MPU 
1223:Drivers/CMSIS/Include/core_cm3.h **** #define MPU_RASR_S_Msk                     (1UL << MPU_RASR_S_Pos)                        /*!< MPU 
1224:Drivers/CMSIS/Include/core_cm3.h **** 
ARM GAS  C:\Users\Vento\AppData\Local\Temp\ccMWL8p6.s 			page 63


1225:Drivers/CMSIS/Include/core_cm3.h **** #define MPU_RASR_C_Pos                     17U                                            /*!< MPU 
1226:Drivers/CMSIS/Include/core_cm3.h **** #define MPU_RASR_C_Msk                     (1UL << MPU_RASR_C_Pos)                        /*!< MPU 
1227:Drivers/CMSIS/Include/core_cm3.h **** 
1228:Drivers/CMSIS/Include/core_cm3.h **** #define MPU_RASR_B_Pos                     16U                                            /*!< MPU 
1229:Drivers/CMSIS/Include/core_cm3.h **** #define MPU_RASR_B_Msk                     (1UL << MPU_RASR_B_Pos)                        /*!< MPU 
1230:Drivers/CMSIS/Include/core_cm3.h **** 
1231:Drivers/CMSIS/Include/core_cm3.h **** #define MPU_RASR_SRD_Pos                    8U                                            /*!< MPU 
1232:Drivers/CMSIS/Include/core_cm3.h **** #define MPU_RASR_SRD_Msk                   (0xFFUL << MPU_RASR_SRD_Pos)                   /*!< MPU 
1233:Drivers/CMSIS/Include/core_cm3.h **** 
1234:Drivers/CMSIS/Include/core_cm3.h **** #define MPU_RASR_SIZE_Pos                   1U                                            /*!< MPU 
1235:Drivers/CMSIS/Include/core_cm3.h **** #define MPU_RASR_SIZE_Msk                  (0x1FUL << MPU_RASR_SIZE_Pos)                  /*!< MPU 
1236:Drivers/CMSIS/Include/core_cm3.h **** 
1237:Drivers/CMSIS/Include/core_cm3.h **** #define MPU_RASR_ENABLE_Pos                 0U                                            /*!< MPU 
1238:Drivers/CMSIS/Include/core_cm3.h **** #define MPU_RASR_ENABLE_Msk                (1UL /*<< MPU_RASR_ENABLE_Pos*/)               /*!< MPU 
1239:Drivers/CMSIS/Include/core_cm3.h **** 
1240:Drivers/CMSIS/Include/core_cm3.h **** /*@} end of group CMSIS_MPU */
1241:Drivers/CMSIS/Include/core_cm3.h **** #endif
1242:Drivers/CMSIS/Include/core_cm3.h **** 
1243:Drivers/CMSIS/Include/core_cm3.h **** 
1244:Drivers/CMSIS/Include/core_cm3.h **** /**
1245:Drivers/CMSIS/Include/core_cm3.h ****   \ingroup  CMSIS_core_register
1246:Drivers/CMSIS/Include/core_cm3.h ****   \defgroup CMSIS_CoreDebug       Core Debug Registers (CoreDebug)
1247:Drivers/CMSIS/Include/core_cm3.h ****   \brief    Type definitions for the Core Debug Registers
1248:Drivers/CMSIS/Include/core_cm3.h ****   @{
1249:Drivers/CMSIS/Include/core_cm3.h ****  */
1250:Drivers/CMSIS/Include/core_cm3.h **** 
1251:Drivers/CMSIS/Include/core_cm3.h **** /**
1252:Drivers/CMSIS/Include/core_cm3.h ****   \brief  Structure type to access the Core Debug Register (CoreDebug).
1253:Drivers/CMSIS/Include/core_cm3.h ****  */
1254:Drivers/CMSIS/Include/core_cm3.h **** typedef struct
1255:Drivers/CMSIS/Include/core_cm3.h **** {
1256:Drivers/CMSIS/Include/core_cm3.h ****   __IOM uint32_t DHCSR;                  /*!< Offset: 0x000 (R/W)  Debug Halting Control and Status
1257:Drivers/CMSIS/Include/core_cm3.h ****   __OM  uint32_t DCRSR;                  /*!< Offset: 0x004 ( /W)  Debug Core Register Selector Reg
1258:Drivers/CMSIS/Include/core_cm3.h ****   __IOM uint32_t DCRDR;                  /*!< Offset: 0x008 (R/W)  Debug Core Register Data Registe
1259:Drivers/CMSIS/Include/core_cm3.h ****   __IOM uint32_t DEMCR;                  /*!< Offset: 0x00C (R/W)  Debug Exception and Monitor Cont
1260:Drivers/CMSIS/Include/core_cm3.h **** } CoreDebug_Type;
1261:Drivers/CMSIS/Include/core_cm3.h **** 
1262:Drivers/CMSIS/Include/core_cm3.h **** /* Debug Halting Control and Status Register Definitions */
1263:Drivers/CMSIS/Include/core_cm3.h **** #define CoreDebug_DHCSR_DBGKEY_Pos         16U                                            /*!< Core
1264:Drivers/CMSIS/Include/core_cm3.h **** #define CoreDebug_DHCSR_DBGKEY_Msk         (0xFFFFUL << CoreDebug_DHCSR_DBGKEY_Pos)       /*!< Core
1265:Drivers/CMSIS/Include/core_cm3.h **** 
1266:Drivers/CMSIS/Include/core_cm3.h **** #define CoreDebug_DHCSR_S_RESET_ST_Pos     25U                                            /*!< Core
1267:Drivers/CMSIS/Include/core_cm3.h **** #define CoreDebug_DHCSR_S_RESET_ST_Msk     (1UL << CoreDebug_DHCSR_S_RESET_ST_Pos)        /*!< Core
1268:Drivers/CMSIS/Include/core_cm3.h **** 
1269:Drivers/CMSIS/Include/core_cm3.h **** #define CoreDebug_DHCSR_S_RETIRE_ST_Pos    24U                                            /*!< Core
1270:Drivers/CMSIS/Include/core_cm3.h **** #define CoreDebug_DHCSR_S_RETIRE_ST_Msk    (1UL << CoreDebug_DHCSR_S_RETIRE_ST_Pos)       /*!< Core
1271:Drivers/CMSIS/Include/core_cm3.h **** 
1272:Drivers/CMSIS/Include/core_cm3.h **** #define CoreDebug_DHCSR_S_LOCKUP_Pos       19U                                            /*!< Core
1273:Drivers/CMSIS/Include/core_cm3.h **** #define CoreDebug_DHCSR_S_LOCKUP_Msk       (1UL << CoreDebug_DHCSR_S_LOCKUP_Pos)          /*!< Core
1274:Drivers/CMSIS/Include/core_cm3.h **** 
1275:Drivers/CMSIS/Include/core_cm3.h **** #define CoreDebug_DHCSR_S_SLEEP_Pos        18U                                            /*!< Core
1276:Drivers/CMSIS/Include/core_cm3.h **** #define CoreDebug_DHCSR_S_SLEEP_Msk        (1UL << CoreDebug_DHCSR_S_SLEEP_Pos)           /*!< Core
1277:Drivers/CMSIS/Include/core_cm3.h **** 
1278:Drivers/CMSIS/Include/core_cm3.h **** #define CoreDebug_DHCSR_S_HALT_Pos         17U                                            /*!< Core
1279:Drivers/CMSIS/Include/core_cm3.h **** #define CoreDebug_DHCSR_S_HALT_Msk         (1UL << CoreDebug_DHCSR_S_HALT_Pos)            /*!< Core
1280:Drivers/CMSIS/Include/core_cm3.h **** 
1281:Drivers/CMSIS/Include/core_cm3.h **** #define CoreDebug_DHCSR_S_REGRDY_Pos       16U                                            /*!< Core
ARM GAS  C:\Users\Vento\AppData\Local\Temp\ccMWL8p6.s 			page 64


1282:Drivers/CMSIS/Include/core_cm3.h **** #define CoreDebug_DHCSR_S_REGRDY_Msk       (1UL << CoreDebug_DHCSR_S_REGRDY_Pos)          /*!< Core
1283:Drivers/CMSIS/Include/core_cm3.h **** 
1284:Drivers/CMSIS/Include/core_cm3.h **** #define CoreDebug_DHCSR_C_SNAPSTALL_Pos     5U                                            /*!< Core
1285:Drivers/CMSIS/Include/core_cm3.h **** #define CoreDebug_DHCSR_C_SNAPSTALL_Msk    (1UL << CoreDebug_DHCSR_C_SNAPSTALL_Pos)       /*!< Core
1286:Drivers/CMSIS/Include/core_cm3.h **** 
1287:Drivers/CMSIS/Include/core_cm3.h **** #define CoreDebug_DHCSR_C_MASKINTS_Pos      3U                                            /*!< Core
1288:Drivers/CMSIS/Include/core_cm3.h **** #define CoreDebug_DHCSR_C_MASKINTS_Msk     (1UL << CoreDebug_DHCSR_C_MASKINTS_Pos)        /*!< Core
1289:Drivers/CMSIS/Include/core_cm3.h **** 
1290:Drivers/CMSIS/Include/core_cm3.h **** #define CoreDebug_DHCSR_C_STEP_Pos          2U                                            /*!< Core
1291:Drivers/CMSIS/Include/core_cm3.h **** #define CoreDebug_DHCSR_C_STEP_Msk         (1UL << CoreDebug_DHCSR_C_STEP_Pos)            /*!< Core
1292:Drivers/CMSIS/Include/core_cm3.h **** 
1293:Drivers/CMSIS/Include/core_cm3.h **** #define CoreDebug_DHCSR_C_HALT_Pos          1U                                            /*!< Core
1294:Drivers/CMSIS/Include/core_cm3.h **** #define CoreDebug_DHCSR_C_HALT_Msk         (1UL << CoreDebug_DHCSR_C_HALT_Pos)            /*!< Core
1295:Drivers/CMSIS/Include/core_cm3.h **** 
1296:Drivers/CMSIS/Include/core_cm3.h **** #define CoreDebug_DHCSR_C_DEBUGEN_Pos       0U                                            /*!< Core
1297:Drivers/CMSIS/Include/core_cm3.h **** #define CoreDebug_DHCSR_C_DEBUGEN_Msk      (1UL /*<< CoreDebug_DHCSR_C_DEBUGEN_Pos*/)     /*!< Core
1298:Drivers/CMSIS/Include/core_cm3.h **** 
1299:Drivers/CMSIS/Include/core_cm3.h **** /* Debug Core Register Selector Register Definitions */
1300:Drivers/CMSIS/Include/core_cm3.h **** #define CoreDebug_DCRSR_REGWnR_Pos         16U                                            /*!< Core
1301:Drivers/CMSIS/Include/core_cm3.h **** #define CoreDebug_DCRSR_REGWnR_Msk         (1UL << CoreDebug_DCRSR_REGWnR_Pos)            /*!< Core
1302:Drivers/CMSIS/Include/core_cm3.h **** 
1303:Drivers/CMSIS/Include/core_cm3.h **** #define CoreDebug_DCRSR_REGSEL_Pos          0U                                            /*!< Core
1304:Drivers/CMSIS/Include/core_cm3.h **** #define CoreDebug_DCRSR_REGSEL_Msk         (0x1FUL /*<< CoreDebug_DCRSR_REGSEL_Pos*/)     /*!< Core
1305:Drivers/CMSIS/Include/core_cm3.h **** 
1306:Drivers/CMSIS/Include/core_cm3.h **** /* Debug Exception and Monitor Control Register Definitions */
1307:Drivers/CMSIS/Include/core_cm3.h **** #define CoreDebug_DEMCR_TRCENA_Pos         24U                                            /*!< Core
1308:Drivers/CMSIS/Include/core_cm3.h **** #define CoreDebug_DEMCR_TRCENA_Msk         (1UL << CoreDebug_DEMCR_TRCENA_Pos)            /*!< Core
1309:Drivers/CMSIS/Include/core_cm3.h **** 
1310:Drivers/CMSIS/Include/core_cm3.h **** #define CoreDebug_DEMCR_MON_REQ_Pos        19U                                            /*!< Core
1311:Drivers/CMSIS/Include/core_cm3.h **** #define CoreDebug_DEMCR_MON_REQ_Msk        (1UL << CoreDebug_DEMCR_MON_REQ_Pos)           /*!< Core
1312:Drivers/CMSIS/Include/core_cm3.h **** 
1313:Drivers/CMSIS/Include/core_cm3.h **** #define CoreDebug_DEMCR_MON_STEP_Pos       18U                                            /*!< Core
1314:Drivers/CMSIS/Include/core_cm3.h **** #define CoreDebug_DEMCR_MON_STEP_Msk       (1UL << CoreDebug_DEMCR_MON_STEP_Pos)          /*!< Core
1315:Drivers/CMSIS/Include/core_cm3.h **** 
1316:Drivers/CMSIS/Include/core_cm3.h **** #define CoreDebug_DEMCR_MON_PEND_Pos       17U                                            /*!< Core
1317:Drivers/CMSIS/Include/core_cm3.h **** #define CoreDebug_DEMCR_MON_PEND_Msk       (1UL << CoreDebug_DEMCR_MON_PEND_Pos)          /*!< Core
1318:Drivers/CMSIS/Include/core_cm3.h **** 
1319:Drivers/CMSIS/Include/core_cm3.h **** #define CoreDebug_DEMCR_MON_EN_Pos         16U                                            /*!< Core
1320:Drivers/CMSIS/Include/core_cm3.h **** #define CoreDebug_DEMCR_MON_EN_Msk         (1UL << CoreDebug_DEMCR_MON_EN_Pos)            /*!< Core
1321:Drivers/CMSIS/Include/core_cm3.h **** 
1322:Drivers/CMSIS/Include/core_cm3.h **** #define CoreDebug_DEMCR_VC_HARDERR_Pos     10U                                            /*!< Core
1323:Drivers/CMSIS/Include/core_cm3.h **** #define CoreDebug_DEMCR_VC_HARDERR_Msk     (1UL << CoreDebug_DEMCR_VC_HARDERR_Pos)        /*!< Core
1324:Drivers/CMSIS/Include/core_cm3.h **** 
1325:Drivers/CMSIS/Include/core_cm3.h **** #define CoreDebug_DEMCR_VC_INTERR_Pos       9U                                            /*!< Core
1326:Drivers/CMSIS/Include/core_cm3.h **** #define CoreDebug_DEMCR_VC_INTERR_Msk      (1UL << CoreDebug_DEMCR_VC_INTERR_Pos)         /*!< Core
1327:Drivers/CMSIS/Include/core_cm3.h **** 
1328:Drivers/CMSIS/Include/core_cm3.h **** #define CoreDebug_DEMCR_VC_BUSERR_Pos       8U                                            /*!< Core
1329:Drivers/CMSIS/Include/core_cm3.h **** #define CoreDebug_DEMCR_VC_BUSERR_Msk      (1UL << CoreDebug_DEMCR_VC_BUSERR_Pos)         /*!< Core
1330:Drivers/CMSIS/Include/core_cm3.h **** 
1331:Drivers/CMSIS/Include/core_cm3.h **** #define CoreDebug_DEMCR_VC_STATERR_Pos      7U                                            /*!< Core
1332:Drivers/CMSIS/Include/core_cm3.h **** #define CoreDebug_DEMCR_VC_STATERR_Msk     (1UL << CoreDebug_DEMCR_VC_STATERR_Pos)        /*!< Core
1333:Drivers/CMSIS/Include/core_cm3.h **** 
1334:Drivers/CMSIS/Include/core_cm3.h **** #define CoreDebug_DEMCR_VC_CHKERR_Pos       6U                                            /*!< Core
1335:Drivers/CMSIS/Include/core_cm3.h **** #define CoreDebug_DEMCR_VC_CHKERR_Msk      (1UL << CoreDebug_DEMCR_VC_CHKERR_Pos)         /*!< Core
1336:Drivers/CMSIS/Include/core_cm3.h **** 
1337:Drivers/CMSIS/Include/core_cm3.h **** #define CoreDebug_DEMCR_VC_NOCPERR_Pos      5U                                            /*!< Core
1338:Drivers/CMSIS/Include/core_cm3.h **** #define CoreDebug_DEMCR_VC_NOCPERR_Msk     (1UL << CoreDebug_DEMCR_VC_NOCPERR_Pos)        /*!< Core
ARM GAS  C:\Users\Vento\AppData\Local\Temp\ccMWL8p6.s 			page 65


1339:Drivers/CMSIS/Include/core_cm3.h **** 
1340:Drivers/CMSIS/Include/core_cm3.h **** #define CoreDebug_DEMCR_VC_MMERR_Pos        4U                                            /*!< Core
1341:Drivers/CMSIS/Include/core_cm3.h **** #define CoreDebug_DEMCR_VC_MMERR_Msk       (1UL << CoreDebug_DEMCR_VC_MMERR_Pos)          /*!< Core
1342:Drivers/CMSIS/Include/core_cm3.h **** 
1343:Drivers/CMSIS/Include/core_cm3.h **** #define CoreDebug_DEMCR_VC_CORERESET_Pos    0U                                            /*!< Core
1344:Drivers/CMSIS/Include/core_cm3.h **** #define CoreDebug_DEMCR_VC_CORERESET_Msk   (1UL /*<< CoreDebug_DEMCR_VC_CORERESET_Pos*/)  /*!< Core
1345:Drivers/CMSIS/Include/core_cm3.h **** 
1346:Drivers/CMSIS/Include/core_cm3.h **** /*@} end of group CMSIS_CoreDebug */
1347:Drivers/CMSIS/Include/core_cm3.h **** 
1348:Drivers/CMSIS/Include/core_cm3.h **** 
1349:Drivers/CMSIS/Include/core_cm3.h **** /**
1350:Drivers/CMSIS/Include/core_cm3.h ****   \ingroup    CMSIS_core_register
1351:Drivers/CMSIS/Include/core_cm3.h ****   \defgroup   CMSIS_core_bitfield     Core register bit field macros
1352:Drivers/CMSIS/Include/core_cm3.h ****   \brief      Macros for use with bit field definitions (xxx_Pos, xxx_Msk).
1353:Drivers/CMSIS/Include/core_cm3.h ****   @{
1354:Drivers/CMSIS/Include/core_cm3.h ****  */
1355:Drivers/CMSIS/Include/core_cm3.h **** 
1356:Drivers/CMSIS/Include/core_cm3.h **** /**
1357:Drivers/CMSIS/Include/core_cm3.h ****   \brief   Mask and shift a bit field value for use in a register bit range.
1358:Drivers/CMSIS/Include/core_cm3.h ****   \param[in] field  Name of the register bit field.
1359:Drivers/CMSIS/Include/core_cm3.h ****   \param[in] value  Value of the bit field. This parameter is interpreted as an uint32_t type.
1360:Drivers/CMSIS/Include/core_cm3.h ****   \return           Masked and shifted value.
1361:Drivers/CMSIS/Include/core_cm3.h **** */
1362:Drivers/CMSIS/Include/core_cm3.h **** #define _VAL2FLD(field, value)    (((uint32_t)(value) << field ## _Pos) & field ## _Msk)
1363:Drivers/CMSIS/Include/core_cm3.h **** 
1364:Drivers/CMSIS/Include/core_cm3.h **** /**
1365:Drivers/CMSIS/Include/core_cm3.h ****   \brief     Mask and shift a register value to extract a bit filed value.
1366:Drivers/CMSIS/Include/core_cm3.h ****   \param[in] field  Name of the register bit field.
1367:Drivers/CMSIS/Include/core_cm3.h ****   \param[in] value  Value of register. This parameter is interpreted as an uint32_t type.
1368:Drivers/CMSIS/Include/core_cm3.h ****   \return           Masked and shifted bit field value.
1369:Drivers/CMSIS/Include/core_cm3.h **** */
1370:Drivers/CMSIS/Include/core_cm3.h **** #define _FLD2VAL(field, value)    (((uint32_t)(value) & field ## _Msk) >> field ## _Pos)
1371:Drivers/CMSIS/Include/core_cm3.h **** 
1372:Drivers/CMSIS/Include/core_cm3.h **** /*@} end of group CMSIS_core_bitfield */
1373:Drivers/CMSIS/Include/core_cm3.h **** 
1374:Drivers/CMSIS/Include/core_cm3.h **** 
1375:Drivers/CMSIS/Include/core_cm3.h **** /**
1376:Drivers/CMSIS/Include/core_cm3.h ****   \ingroup    CMSIS_core_register
1377:Drivers/CMSIS/Include/core_cm3.h ****   \defgroup   CMSIS_core_base     Core Definitions
1378:Drivers/CMSIS/Include/core_cm3.h ****   \brief      Definitions for base addresses, unions, and structures.
1379:Drivers/CMSIS/Include/core_cm3.h ****   @{
1380:Drivers/CMSIS/Include/core_cm3.h ****  */
